; Disassembly of the file "C:\Users\rgoldapp\Desktop\debug2.bin"
; 
; CPU Type: Z80
; 
; Created with dZ80 2.0
; 
; on Friday, 27 of January 2023 at 04:47 PM
; 
0000 c30001    jp      0100h
0003 ff        rst     38h
0004 ff        rst     38h
0005 ff        rst     38h
0006 ff        rst     38h
0007 ff        rst     38h
0008 ff        rst     38h
0009 ff        rst     38h
000a ff        rst     38h
000b ff        rst     38h
000c ff        rst     38h
000d ff        rst     38h
000e ff        rst     38h
000f ff        rst     38h
0010 ff        rst     38h
0011 ff        rst     38h
0012 ff        rst     38h
0013 ff        rst     38h
0014 ff        rst     38h
0015 ff        rst     38h
0016 ff        rst     38h
0017 ff        rst     38h
0018 ff        rst     38h
0019 ff        rst     38h
001a ff        rst     38h
001b ff        rst     38h
001c ff        rst     38h
001d ff        rst     38h
001e ff        rst     38h
001f ff        rst     38h
0020 ff        rst     38h
0021 ff        rst     38h
0022 ff        rst     38h
0023 ff        rst     38h
0024 ff        rst     38h
0025 ff        rst     38h
0026 ff        rst     38h
0027 ff        rst     38h
0028 ff        rst     38h
0029 ff        rst     38h
002a ff        rst     38h
002b ff        rst     38h
002c ff        rst     38h
002d ff        rst     38h
002e ff        rst     38h
002f ff        rst     38h
0030 ff        rst     38h
0031 ff        rst     38h
0032 ff        rst     38h
0033 ff        rst     38h
0034 ff        rst     38h
0035 ff        rst     38h
0036 ff        rst     38h
0037 ff        rst     38h
0038 00        nop     
0039 f3        di      
003a 3e00      ld      a,00h
003c d306      out     (06h),a
003e 3240a0    ld      (0a040h),a
0041 db01      in      a,(01h)
0043 cbff      set     7,a
0045 d301      out     (01h),a
0047 3a2aa0    ld      a,(0a02ah)
004a cbcf      set     1,a
004c 322aa0    ld      (0a02ah),a
004f 76        halt    
0050 ff        rst     38h
0051 ff        rst     38h
0052 ff        rst     38h
0053 ff        rst     38h
0054 ff        rst     38h
0055 ff        rst     38h
0056 ff        rst     38h
0057 ff        rst     38h
0058 ff        rst     38h
0059 ff        rst     38h
005a ff        rst     38h
005b ff        rst     38h
005c ff        rst     38h
005d ff        rst     38h
005e ff        rst     38h
005f ff        rst     38h
0060 ff        rst     38h
0061 ff        rst     38h
0062 00        nop     
0063 05        dec     b
0064 00        nop     
0065 08        ex      af,af'
0066 ff        rst     38h
0067 ff        rst     38h
0068 ff        rst     38h
0069 ff        rst     38h
006a ff        rst     38h
006b ff        rst     38h
006c ff        rst     38h
006d ff        rst     38h
006e ff        rst     38h
006f ff        rst     38h
0070 ff        rst     38h
0071 ff        rst     38h
0072 ff        rst     38h
0073 ff        rst     38h
0074 ff        rst     38h
0075 ff        rst     38h
0076 ff        rst     38h
0077 ff        rst     38h
0078 ff        rst     38h
0079 ff        rst     38h
007a ff        rst     38h
007b ff        rst     38h
007c ff        rst     38h
007d ff        rst     38h
007e ff        rst     38h
007f ff        rst     38h
0080 ff        rst     38h
0081 ff        rst     38h
0082 ff        rst     38h
0083 ff        rst     38h
0084 ff        rst     38h
0085 ff        rst     38h
0086 ff        rst     38h
0087 ff        rst     38h
0088 ff        rst     38h
0089 ff        rst     38h
008a ff        rst     38h
008b ff        rst     38h
008c ff        rst     38h
008d ff        rst     38h
008e ff        rst     38h
008f ff        rst     38h
0090 ff        rst     38h
0091 ff        rst     38h
0092 ff        rst     38h
0093 ff        rst     38h
0094 ff        rst     38h
0095 ff        rst     38h
0096 ff        rst     38h
0097 ff        rst     38h
0098 ff        rst     38h
0099 ff        rst     38h
009a ff        rst     38h
009b ff        rst     38h
009c ff        rst     38h
009d ff        rst     38h
009e ff        rst     38h
009f ff        rst     38h
00a0 ff        rst     38h
00a1 ff        rst     38h
00a2 ff        rst     38h
00a3 ff        rst     38h
00a4 ff        rst     38h
00a5 ff        rst     38h
00a6 ff        rst     38h
00a7 ff        rst     38h
00a8 ff        rst     38h
00a9 ff        rst     38h
00aa ff        rst     38h
00ab ff        rst     38h
00ac ff        rst     38h
00ad ff        rst     38h
00ae ff        rst     38h
00af ff        rst     38h
00b0 ff        rst     38h
00b1 ff        rst     38h
00b2 ff        rst     38h
00b3 ff        rst     38h
00b4 ff        rst     38h
00b5 ff        rst     38h
00b6 ff        rst     38h
00b7 ff        rst     38h
00b8 ff        rst     38h
00b9 ff        rst     38h
00ba ff        rst     38h
00bb ff        rst     38h
00bc ff        rst     38h
00bd ff        rst     38h
00be ff        rst     38h
00bf ff        rst     38h
00c0 ff        rst     38h
00c1 ff        rst     38h
00c2 ff        rst     38h
00c3 ff        rst     38h
00c4 ff        rst     38h
00c5 ff        rst     38h
00c6 ff        rst     38h
00c7 ff        rst     38h
00c8 ff        rst     38h
00c9 ff        rst     38h
00ca ff        rst     38h
00cb ff        rst     38h
00cc ff        rst     38h
00cd ff        rst     38h
00ce ff        rst     38h
00cf ff        rst     38h
00d0 ff        rst     38h
00d1 ff        rst     38h
00d2 ff        rst     38h
00d3 ff        rst     38h
00d4 ff        rst     38h
00d5 ff        rst     38h
00d6 ff        rst     38h
00d7 ff        rst     38h
00d8 ff        rst     38h
00d9 ff        rst     38h
00da ff        rst     38h
00db ff        rst     38h
00dc ff        rst     38h
00dd ff        rst     38h
00de ff        rst     38h
00df ff        rst     38h
00e0 ff        rst     38h
00e1 ff        rst     38h
00e2 ff        rst     38h
00e3 ff        rst     38h
00e4 ff        rst     38h
00e5 ff        rst     38h
00e6 ff        rst     38h
00e7 ff        rst     38h
00e8 ff        rst     38h
00e9 ff        rst     38h
00ea ff        rst     38h
00eb ff        rst     38h
00ec ff        rst     38h
00ed ff        rst     38h
00ee ff        rst     38h
00ef ff        rst     38h
00f0 ff        rst     38h
00f1 ff        rst     38h
00f2 ff        rst     38h
00f3 ff        rst     38h
00f4 ff        rst     38h
00f5 ff        rst     38h
00f6 ff        rst     38h
00f7 ff        rst     38h
00f8 ff        rst     38h
00f9 ff        rst     38h
00fa ff        rst     38h
00fb ff        rst     38h
00fc ff        rst     38h
00fd ff        rst     38h
00fe ff        rst     38h
00ff ff        rst     38h
0100 31ffbf    ld      sp,0bfffh
0103 cd9f04    call    049fh
0106 cddd11    call    11ddh
0109 af        xor     a
010a d300      out     (00h),a
010c d302      out     (02h),a
010e d305      out     (05h),a
0110 3e80      ld      a,80h
0112 d306      out     (06h),a
0114 d304      out     (04h),a
0116 3e20      ld      a,20h
0118 d301      out     (01h),a
011a db00      in      a,(00h)
011c cb57      bit     2,a
011e ca9401    jp      z,0194h
0121 cb5f      bit     3,a
0123 ca9401    jp      z,0194h
0126 3e50      ld      a,50h
0128 320ca0    ld      (0a00ch),a
012b 3e01      ld      a,01h
012d 320da0    ld      (0a00dh),a
0130 3e8d      ld      a,8dh
0132 3206a0    ld      (0a006h),a
0135 3e00      ld      a,00h
0137 3207a0    ld      (0a007h),a
013a 3e20      ld      a,20h
013c 3208a0    ld      (0a008h),a
013f 3e01      ld      a,01h
0141 3209a0    ld      (0a009h),a
0144 3ed0      ld      a,0d0h
0146 320aa0    ld      (0a00ah),a
0149 3e00      ld      a,00h
014b 320ba0    ld      (0a00bh),a
014e 3e80      ld      a,80h
0150 3210a0    ld      (0a010h),a
0153 3e01      ld      a,01h
0155 3211a0    ld      (0a011h),a
0158 3e30      ld      a,30h
015a 3214a0    ld      (0a014h),a
015d 3e00      ld      a,00h
015f 3215a0    ld      (0a015h),a
0162 3e05      ld      a,05h
0164 3212a0    ld      (0a012h),a
0167 3e00      ld      a,00h
0169 3213a0    ld      (0a013h),a
016c 3e02      ld      a,02h
016e 3216a0    ld      (0a016h),a
0171 3e00      ld      a,00h
0173 3217a0    ld      (0a017h),a
0176 3e10      ld      a,10h
0178 3218a0    ld      (0a018h),a
017b 3e00      ld      a,00h
017d 3219a0    ld      (0a019h),a
0180 3ec0      ld      a,0c0h
0182 321aa0    ld      (0a01ah),a
0185 3e00      ld      a,00h
0187 321ba0    ld      (0a01bh),a
018a 3e10      ld      a,10h
018c 320ea0    ld      (0a00eh),a
018f 3e00      ld      a,00h
0191 320fa0    ld      (0a00fh),a
0194 00        nop     
0195 2a0ca0    ld      hl,(0a00ch)
0198 111000    ld      de,0010h
019b ed52      sbc     hl,de
019d 221ca0    ld      (0a01ch),hl
01a0 af        xor     a
01a1 3204a1    ld      (0a104h),a
01a4 3208a1    ld      (0a108h),a
01a7 3228a1    ld      (0a128h),a
01aa 321ea0    ld      (0a01eh),a
01ad 3224a0    ld      (0a024h),a
01b0 3222a0    ld      (0a022h),a
01b3 3220a0    ld      (0a020h),a
01b6 3226a0    ld      (0a026h),a
01b9 3228a0    ld      (0a028h),a
01bc 322aa0    ld      (0a02ah),a
01bf 322ca0    ld      (0a02ch),a
01c2 3eff      ld      a,0ffh
01c4 322ea0    ld      (0a02eh),a
01c7 3230a0    ld      (0a030h),a
01ca 3e80      ld      a,80h
01cc 3240a0    ld      (0a040h),a
01cf 3242a0    ld      (0a042h),a
01d2 210000    ld      hl,0000h
01d5 2204a0    ld      (0a004h),hl
01d8 2202a0    ld      (0a002h),hl
01db cd0424    call    2404h
01de db00      in      a,(00h)
01e0 cb77      bit     6,a
01e2 caef01    jp      z,01efh
01e5 3a40a0    ld      a,(0a040h)
01e8 cbd7      set     2,a
01ea d306      out     (06h),a
01ec 3240a0    ld      (0a040h),a
01ef fb        ei      
01f0 db05      in      a,(05h)
01f2 cb7f      bit     7,a
01f4 caef01    jp      z,01efh
01f7 3a26a0    ld      a,(0a026h)
01fa cb4f      bit     1,a
01fc c22e02    jp      nz,022eh
01ff 3a20a0    ld      a,(0a020h)
0202 cb7f      bit     7,a
0204 ca1302    jp      z,0213h
0207 cdc002    call    02c0h
020a c3ef01    jp      01efh
020d cdf502    call    02f5h
0210 c3ef01    jp      01efh
0213 3a20a0    ld      a,(0a020h)
0216 cb57      bit     2,a
0218 c2ef01    jp      nz,01efh
021b 3a20a0    ld      a,(0a020h)
021e cb67      bit     4,a
0220 c2ef01    jp      nz,01efh
0223 3a20a0    ld      a,(0a020h)
0226 cb4f      bit     1,a
0228 caef01    jp      z,01efh
022b c30d02    jp      020dh
022e 3a24a0    ld      a,(0a024h)
0231 cb7f      bit     7,a
0233 c23902    jp      nz,0239h
0236 cd3f02    call    023fh
0239 cdd403    call    03d4h
023c c3ef01    jp      01efh
023f 3a26a0    ld      a,(0a026h)
0242 cb77      bit     6,a
0244 c28202    jp      nz,0282h
0247 3a26a0    ld      a,(0a026h)
024a cb6f      bit     5,a
024c ca8202    jp      z,0282h
024f db00      in      a,(00h)
0251 cb6f      bit     5,a
0253 ca7a02    jp      z,027ah
0256 db01      in      a,(01h)
0258 cb7f      bit     7,a
025a c26402    jp      nz,0264h
025d 3e00      ld      a,00h
025f d301      out     (01h),a
0261 c36802    jp      0268h
0264 3e80      ld      a,80h
0266 d301      out     (01h),a
0268 3a26a0    ld      a,(0a026h)
026b cbf7      set     6,a
026d cbaf      res     5,a
026f 3226a0    ld      (0a026h),a
0272 3e64      ld      a,64h
0274 3244a0    ld      (0a044h),a
0277 c38202    jp      0282h
027a 3a26a0    ld      a,(0a026h)
027d cbaf      res     5,a
027f 3226a0    ld      (0a026h),a
0282 3a24a0    ld      a,(0a024h)
0285 cb57      bit     2,a
0287 caa102    jp      z,02a1h
028a 3a22a0    ld      a,(0a022h)
028d cb7f      bit     7,a
028f c29902    jp      nz,0299h
0292 db00      in      a,(00h)
0294 cb7f      bit     7,a
0296 c2b702    jp      nz,02b7h
0299 3a24a0    ld      a,(0a024h)
029c cb97      res     2,a
029e 3224a0    ld      (0a024h),a
02a1 3a24a0    ld      a,(0a024h)
02a4 cb47      bit     0,a
02a6 c8        ret     z

02a7 db00      in      a,(00h)
02a9 cb5f      bit     3,a
02ab c2b702    jp      nz,02b7h
02ae 3a24a0    ld      a,(0a024h)
02b1 cb87      res     0,a
02b3 3224a0    ld      (0a024h),a
02b6 c9        ret     

02b7 3a24a0    ld      a,(0a024h)
02ba cbff      set     7,a
02bc 3224a0    ld      (0a024h),a
02bf c9        ret     

02c0 3a1ea0    ld      a,(0a01eh)
02c3 cb47      bit     0,a
02c5 cadb02    jp      z,02dbh
02c8 db00      in      a,(00h)
02ca cb57      bit     2,a
02cc cad302    jp      z,02d3h
02cf cd9903    call    0399h
02d2 c9        ret     

02d3 3a1ea0    ld      a,(0a01eh)
02d6 cb87      res     0,a
02d8 321ea0    ld      (0a01eh),a
02db 3a1ea0    ld      a,(0a01eh)
02de cb4f      bit     1,a
02e0 c8        ret     z

02e1 db00      in      a,(00h)
02e3 cb4f      bit     1,a
02e5 caec02    jp      z,02ech
02e8 cd6c03    call    036ch
02eb c9        ret     

02ec 3a1ea0    ld      a,(0a01eh)
02ef cb8f      res     1,a
02f1 321ea0    ld      (0a01eh),a
02f4 c9        ret     

02f5 3a26a0    ld      a,(0a026h)
02f8 cb47      bit     0,a
02fa ca0503    jp      z,0305h
02fd 3eff      ld      a,0ffh
02ff 322ea0    ld      (0a02eh),a
0302 3230a0    ld      (0a030h),a
0305 3a2ca0    ld      a,(0a02ch)
0308 fe00      cp      00h
030a c0        ret     nz

030b 3a2aa0    ld      a,(0a02ah)
030e fe00      cp      00h
0310 c0        ret     nz

0311 3a20a0    ld      a,(0a020h)
0314 cbd7      set     2,a
0316 3220a0    ld      (0a020h),a
0319 3a20a0    ld      a,(0a020h)
031c cb8f      res     1,a
031e 3220a0    ld      (0a020h),a
0321 3a40a0    ld      a,(0a040h)
0324 cbcf      set     1,a
0326 d306      out     (06h),a
0328 3240a0    ld      (0a040h),a
032b 3a40a0    ld      a,(0a040h)
032e cbf7      set     6,a
0330 d306      out     (06h),a
0332 3240a0    ld      (0a040h),a
0335 3eff      ld      a,0ffh
0337 322ea0    ld      (0a02eh),a
033a 3230a0    ld      (0a030h),a
033d fb        ei      
033e db05      in      a,(05h)
0340 cb6f      bit     5,a
0342 c23d03    jp      nz,033dh
0345 210000    ld      hl,0000h
0348 2204a0    ld      (0a004h),hl
034b 3a24a0    ld      a,(0a024h)
034e cbff      set     7,a
0350 3224a0    ld      (0a024h),a
0353 3a20a0    ld      a,(0a020h)
0356 cbe7      set     4,a
0358 3220a0    ld      (0a020h),a
035b 3a20a0    ld      a,(0a020h)
035e cb97      res     2,a
0360 3220a0    ld      (0a020h),a
0363 3a26a0    ld      a,(0a026h)
0366 cb87      res     0,a
0368 3226a0    ld      (0a026h),a
036b c9        ret     

036c 3a2ca0    ld      a,(0a02ch)
036f fe00      cp      00h
0371 c0        ret     nz

0372 3a2aa0    ld      a,(0a02ah)
0375 fe00      cp      00h
0377 c0        ret     nz

0378 3a20a0    ld      a,(0a020h)
037b cb7f      bit     7,a
037d c8        ret     z

037e 3a40a0    ld      a,(0a040h)
0381 cbf7      set     6,a
0383 d306      out     (06h),a
0385 3240a0    ld      (0a040h),a
0388 3a26a0    ld      a,(0a026h)
038b cbcf      set     1,a
038d 3226a0    ld      (0a026h),a
0390 3a26a0    ld      a,(0a026h)
0393 cbd7      set     2,a
0395 3226a0    ld      (0a026h),a
0398 c9        ret     

0399 3a2ca0    ld      a,(0a02ch)
039c fe00      cp      00h
039e c0        ret     nz

039f 3a2aa0    ld      a,(0a02ah)
03a2 fe00      cp      00h
03a4 c0        ret     nz

03a5 3a26a0    ld      a,(0a026h)
03a8 cbcf      set     1,a
03aa 3226a0    ld      (0a026h),a
03ad 3a40a0    ld      a,(0a040h)
03b0 cbf7      set     6,a
03b2 d306      out     (06h),a
03b4 3240a0    ld      (0a040h),a
03b7 3a22a0    ld      a,(0a022h)
03ba cb7f      bit     7,a
03bc c0        ret     nz

03bd 3a40a0    ld      a,(0a040h)
03c0 cbef      set     5,a
03c2 d306      out     (06h),a
03c4 3240a0    ld      (0a040h),a
03c7 2a1aa0    ld      hl,(0a01ah)
03ca 223ca0    ld      (0a03ch),hl
03cd 210000    ld      hl,0000h
03d0 223aa0    ld      (0a03ah),hl
03d3 c9        ret     

03d4 3a1ea0    ld      a,(0a01eh)
03d7 cb5f      bit     3,a
03d9 c8        ret     z

03da 3a1ea0    ld      a,(0a01eh)
03dd cb67      bit     4,a
03df c0        ret     nz

03e0 3a2ea0    ld      a,(0a02eh)
03e3 cb27      sla     a
03e5 322ea0    ld      (0a02eh),a
03e8 3a30a0    ld      a,(0a030h)
03eb cb27      sla     a
03ed 3230a0    ld      (0a030h),a
03f0 d2fb03    jp      nc,03fbh
03f3 3a2ea0    ld      a,(0a02eh)
03f6 cbc7      set     0,a
03f8 322ea0    ld      (0a02eh),a
03fb 3a30a0    ld      a,(0a030h)
03fe cbc7      set     0,a
0400 3230a0    ld      (0a030h),a
0403 3a22a0    ld      a,(0a022h)
0406 cb7f      bit     7,a
0408 c28e04    jp      nz,048eh
040b db05      in      a,(05h)
040d cb47      bit     0,a
040f ca5004    jp      z,0450h
0412 3a30a0    ld      a,(0a030h)
0415 cb87      res     0,a
0417 3230a0    ld      (0a030h),a
041a db05      in      a,(05h)
041c cb57      bit     2,a
041e c23304    jp      nz,0433h
0421 db05      in      a,(05h)
0423 cb4f      bit     1,a
0425 ca8e04    jp      z,048eh
0428 3a2ca0    ld      a,(0a02ch)
042b cbc7      set     0,a
042d 322ca0    ld      (0a02ch),a
0430 c37804    jp      0478h
0433 db05      in      a,(05h)
0435 cb4f      bit     1,a
0437 ca4504    jp      z,0445h
043a 3a2ca0    ld      a,(0a02ch)
043d cbd7      set     2,a
043f 322ca0    ld      (0a02ch),a
0442 c37804    jp      0478h
0445 3a2ca0    ld      a,(0a02ch)
0448 cbcf      set     1,a
044a 322ca0    ld      (0a02ch),a
044d c37804    jp      0478h
0450 db05      in      a,(05h)
0452 cb57      bit     2,a
0454 c26904    jp      nz,0469h
0457 db05      in      a,(05h)
0459 cb4f      bit     1,a
045b c28e04    jp      nz,048eh
045e 3a2ca0    ld      a,(0a02ch)
0461 cbdf      set     3,a
0463 322ca0    ld      (0a02ch),a
0466 c37804    jp      0478h
0469 db05      in      a,(05h)
046b cb4f      bit     1,a
046d ca8e04    jp      z,048eh
0470 3a2ca0    ld      a,(0a02ch)
0473 cbe7      set     4,a
0475 322ca0    ld      (0a02ch),a
0478 3a2ea0    ld      a,(0a02eh)
047b cbc7      set     0,a
047d 322ea0    ld      (0a02eh),a
0480 3a24a0    ld      a,(0a024h)
0483 cbff      set     7,a
0485 3224a0    ld      (0a024h),a
0488 db01      in      a,(01h)
048a cbff      set     7,a
048c d301      out     (01h),a
048e 3a1ea0    ld      a,(0a01eh)
0491 cbe7      set     4,a
0493 321ea0    ld      (0a01eh),a
0496 3a1ea0    ld      a,(0a01eh)
0499 cb9f      res     3,a
049b 321ea0    ld      (0a01eh),a
049e c9        ret     

049f ed5e      im      2
04a1 3e60      ld      a,60h
04a3 d3f0      out     (0f0h),a
04a5 3e45      ld      a,45h
04a7 d3f0      out     (0f0h),a
04a9 3ec0      ld      a,0c0h
04ab d3f0      out     (0f0h),a
04ad 3ec5      ld      a,0c5h
04af d3f1      out     (0f1h),a
04b1 3e01      ld      a,01h
04b3 d3f1      out     (0f1h),a
04b5 3ed5      ld      a,0d5h
04b7 d3f2      out     (0f2h),a
04b9 3e01      ld      a,01h
04bb d3f2      out     (0f2h),a
04bd c9        ret     

04be ff        rst     38h
04bf ff        rst     38h
04c0 ff        rst     38h
04c1 ff        rst     38h
04c2 ff        rst     38h
04c3 ff        rst     38h
04c4 ff        rst     38h
04c5 ff        rst     38h
04c6 ff        rst     38h
04c7 ff        rst     38h
04c8 ff        rst     38h
04c9 ff        rst     38h
04ca ff        rst     38h
04cb ff        rst     38h
04cc ff        rst     38h
04cd ff        rst     38h
04ce ff        rst     38h
04cf ff        rst     38h
04d0 ff        rst     38h
04d1 ff        rst     38h
04d2 ff        rst     38h
04d3 ff        rst     38h
04d4 ff        rst     38h
04d5 ff        rst     38h
04d6 ff        rst     38h
04d7 ff        rst     38h
04d8 ff        rst     38h
04d9 ff        rst     38h
04da ff        rst     38h
04db ff        rst     38h
04dc ff        rst     38h
04dd ff        rst     38h
04de ff        rst     38h
04df ff        rst     38h
04e0 ff        rst     38h
04e1 ff        rst     38h
04e2 ff        rst     38h
04e3 ff        rst     38h
04e4 ff        rst     38h
04e5 ff        rst     38h
04e6 ff        rst     38h
04e7 ff        rst     38h
04e8 ff        rst     38h
04e9 ff        rst     38h
04ea ff        rst     38h
04eb ff        rst     38h
04ec ff        rst     38h
04ed ff        rst     38h
04ee ff        rst     38h
04ef ff        rst     38h
04f0 ff        rst     38h
04f1 ff        rst     38h
04f2 ff        rst     38h
04f3 ff        rst     38h
04f4 ff        rst     38h
04f5 ff        rst     38h
04f6 ff        rst     38h
04f7 ff        rst     38h
04f8 ff        rst     38h
04f9 ff        rst     38h
04fa ff        rst     38h
04fb ff        rst     38h
04fc ff        rst     38h
04fd ff        rst     38h
04fe ff        rst     38h
04ff ff        rst     38h
0500 f5        push    af
0501 c5        push    bc
0502 d5        push    de
0503 e5        push    hl
0504 3a20a0    ld      a,(0a020h)
0507 cb57      bit     2,a
0509 ca1405    jp      z,0514h
050c 3a26a0    ld      a,(0a026h)
050f cb47      bit     0,a
0511 ca7705    jp      z,0577h
0514 db05      in      a,(05h)
0516 cb6f      bit     5,a
0518 c22105    jp      nz,0521h
051b 210000    ld      hl,0000h
051e 2204a0    ld      (0a004h),hl
0521 db05      in      a,(05h)
0523 cb5f      bit     3,a
0525 ca7d05    jp      z,057dh
0528 3a26a0    ld      a,(0a026h)
052b cb5f      bit     3,a
052d ca4a05    jp      z,054ah
0530 2a04a0    ld      hl,(0a004h)
0533 ed5b02a0  ld      de,(0a002h)
0537 ed52      sbc     hl,de
0539 faa705    jp      m,05a7h
053c ca4205    jp      z,0542h
053f c3a705    jp      05a7h
0542 3a26a0    ld      a,(0a026h)
0545 cb9f      res     3,a
0547 3226a0    ld      (0a026h),a
054a 2a04a0    ld      hl,(0a004h)
054d 23        inc     hl
054e 2204a0    ld      (0a004h),hl
0551 c35405    jp      0554h
0554 3a26a0    ld      a,(0a026h)
0557 cb47      bit     0,a
0559 ca6205    jp      z,0562h
055c cde305    call    05e3h
055f c37705    jp      0577h
0562 cd3006    call    0630h
0565 cdb105    call    05b1h
0568 cdf006    call    06f0h
056b cde305    call    05e3h
056e cdd406    call    06d4h
0571 cd1d06    call    061dh
0574 cd4f07    call    074fh
0577 e1        pop     hl
0578 d1        pop     de
0579 c1        pop     bc
057a f1        pop     af
057b ed4d      reti    

057d 3a26a0    ld      a,(0a026h)
0580 cb5f      bit     3,a
0582 ca8f05    jp      z,058fh
0585 2a04a0    ld      hl,(0a004h)
0588 2b        dec     hl
0589 2204a0    ld      (0a004h),hl
058c c37705    jp      0577h
058f 3a26a0    ld      a,(0a026h)
0592 cbdf      set     3,a
0594 3226a0    ld      (0a026h),a
0597 2a04a0    ld      hl,(0a004h)
059a 2202a0    ld      (0a002h),hl
059d 2a04a0    ld      hl,(0a004h)
05a0 2b        dec     hl
05a1 2204a0    ld      (0a004h),hl
05a4 c37705    jp      0577h
05a7 2a04a0    ld      hl,(0a004h)
05aa 23        inc     hl
05ab 2204a0    ld      (0a004h),hl
05ae c37705    jp      0577h
05b1 3a1ea0    ld      a,(0a01eh)
05b4 cb57      bit     2,a
05b6 c0        ret     nz

05b7 2a04a0    ld      hl,(0a004h)
05ba ed5b06a0  ld      de,(0a006h)
05be 7a        ld      a,d
05bf bc        cp      h
05c0 c0        ret     nz

05c1 7b        ld      a,e
05c2 bd        cp      l
05c3 c0        ret     nz

05c4 cdc805    call    05c8h
05c7 c9        ret     

05c8 3a42a0    ld      a,(0a042h)
05cb cbf7      set     6,a
05cd cbbf      res     7,a
05cf d304      out     (04h),a
05d1 3242a0    ld      (0a042h),a
05d4 3a1ea0    ld      a,(0a01eh)
05d7 cbd7      set     2,a
05d9 321ea0    ld      (0a01eh),a
05dc 3a14a0    ld      a,(0a014h)
05df 3236a0    ld      (0a036h),a
05e2 c9        ret     

05e3 2a04a0    ld      hl,(0a004h)
05e6 ed5b0aa0  ld      de,(0a00ah)
05ea 7a        ld      a,d
05eb bc        cp      h
05ec c0        ret     nz

05ed 7b        ld      a,e
05ee bd        cp      l
05ef c0        ret     nz

05f0 3a2ea0    ld      a,(0a02eh)
05f3 cb77      bit     6,a
05f5 cafb05    jp      z,05fbh
05f8 cd0406    call    0604h
05fb 3a1ea0    ld      a,(0a01eh)
05fe cbaf      res     5,a
0600 321ea0    ld      (0a01eh),a
0603 c9        ret     

0604 3a22a0    ld      a,(0a022h)
0607 cbc7      set     0,a
0609 3222a0    ld      (0a022h),a
060c 3a12a0    ld      a,(0a012h)
060f 3234a0    ld      (0a034h),a
0612 3a40a0    ld      a,(0a040h)
0615 cbdf      set     3,a
0617 d306      out     (06h),a
0619 3240a0    ld      (0a040h),a
061c c9        ret     

061d 2a04a0    ld      hl,(0a004h)
0620 7c        ld      a,h
0621 fe01      cp      01h
0623 c0        ret     nz

0624 7d        ld      a,l
0625 fe68      cp      68h
0627 c0        ret     nz

0628 2600      ld      h,00h
062a 2e00      ld      l,00h
062c 2204a0    ld      (0a004h),hl
062f c9        ret     

0630 3a24a0    ld      a,(0a024h)
0633 cb7f      bit     7,a
0635 c8        ret     z

0636 2a04a0    ld      hl,(0a004h)
0639 ed5b0ca0  ld      de,(0a00ch)
063d 7a        ld      a,d
063e bc        cp      h
063f c0        ret     nz

0640 7b        ld      a,e
0641 bd        cp      l
0642 c0        ret     nz

0643 3a20a0    ld      a,(0a020h)
0646 cb67      bit     4,a
0648 c28f06    jp      nz,068fh
064b 3a26a0    ld      a,(0a026h)
064e cb57      bit     2,a
0650 c26006    jp      nz,0660h
0653 3a40a0    ld      a,(0a040h)
0656 cbaf      res     5,a
0658 d306      out     (06h),a
065a 3240a0    ld      (0a040h),a
065d c36806    jp      0668h
0660 3a26a0    ld      a,(0a026h)
0663 cb97      res     2,a
0665 3226a0    ld      (0a026h),a
0668 3a26a0    ld      a,(0a026h)
066b cb8f      res     1,a
066d 3226a0    ld      (0a026h),a
0670 3a40a0    ld      a,(0a040h)
0673 cbb7      res     6,a
0675 d306      out     (06h),a
0677 3240a0    ld      (0a040h),a
067a 3a24a0    ld      a,(0a024h)
067d af        xor     a
067e 3224a0    ld      (0a024h),a
0681 3a22a0    ld      a,(0a022h)
0684 cb77      bit     6,a
0686 c8        ret     z

0687 cbbf      res     7,a
0689 cbb7      res     6,a
068b 3222a0    ld      (0a022h),a
068e c9        ret     

068f 3a40a0    ld      a,(0a040h)
0692 cbb7      res     6,a
0694 d306      out     (06h),a
0696 3240a0    ld      (0a040h),a
0699 3a28a0    ld      a,(0a028h)
069c cb67      bit     4,a
069e c2ab06    jp      nz,06abh
06a1 3a40a0    ld      a,(0a040h)
06a4 cb8f      res     1,a
06a6 d306      out     (06h),a
06a8 3240a0    ld      (0a040h),a
06ab 3a20a0    ld      a,(0a020h)
06ae cbff      set     7,a
06b0 3220a0    ld      (0a020h),a
06b3 3a24a0    ld      a,(0a024h)
06b6 cbbf      res     7,a
06b8 3224a0    ld      (0a024h),a
06bb 3a20a0    ld      a,(0a020h)
06be cba7      res     4,a
06c0 cb87      res     0,a
06c2 3220a0    ld      (0a020h),a
06c5 3a26a0    ld      a,(0a026h)
06c8 cb47      bit     0,a
06ca c8        ret     z

06cb 3a26a0    ld      a,(0a026h)
06ce cb87      res     0,a
06d0 3226a0    ld      (0a026h),a
06d3 c9        ret     

06d4 3a26a0    ld      a,(0a026h)
06d7 cb57      bit     2,a
06d9 c8        ret     z

06da 2a04a0    ld      hl,(0a004h)
06dd ed5b1ca0  ld      de,(0a01ch)
06e1 7a        ld      a,d
06e2 bc        cp      h
06e3 c0        ret     nz

06e4 7b        ld      a,e
06e5 bd        cp      l
06e6 c0        ret     nz

06e7 3a24a0    ld      a,(0a024h)
06ea cbff      set     7,a
06ec 3224a0    ld      (0a024h),a
06ef c9        ret     

06f0 3a1ea0    ld      a,(0a01eh)
06f3 cb67      bit     4,a
06f5 c8        ret     z

06f6 2a04a0    ld      hl,(0a004h)
06f9 ed5b08a0  ld      de,(0a008h)
06fd 7a        ld      a,d
06fe bc        cp      h
06ff c0        ret     nz

0700 7b        ld      a,e
0701 bd        cp      l
0702 c0        ret     nz

0703 3a1ea0    ld      a,(0a01eh)
0706 cb77      bit     6,a
0708 c23c07    jp      nz,073ch
070b 3a30a0    ld      a,(0a030h)
070e cb7f      bit     7,a
0710 ca3407    jp      z,0734h
0713 3a30a0    ld      a,(0a030h)
0716 cbbf      res     7,a
0718 3230a0    ld      (0a030h),a
071b c33c07    jp      073ch
071e 3a2ca0    ld      a,(0a02ch)
0721 cbff      set     7,a
0723 322ca0    ld      (0a02ch),a
0726 db01      in      a,(01h)
0728 cbff      set     7,a
072a d301      out     (01h),a
072c 3a24a0    ld      a,(0a024h)
072f cbff      set     7,a
0731 3224a0    ld      (0a024h),a
0734 3a30a0    ld      a,(0a030h)
0737 cbff      set     7,a
0739 3230a0    ld      (0a030h),a
073c 3a1ea0    ld      a,(0a01eh)
073f cbef      set     5,a
0741 321ea0    ld      (0a01eh),a
0744 3a1ea0    ld      a,(0a01eh)
0747 cba7      res     4,a
0749 cbb7      res     6,a
074b 321ea0    ld      (0a01eh),a
074e c9        ret     

074f 3a40a0    ld      a,(0a040h)
0752 cb6f      bit     5,a
0754 c8        ret     z

0755 2a3aa0    ld      hl,(0a03ah)
0758 23        inc     hl
0759 223aa0    ld      (0a03ah),hl
075c c9        ret     

075d ff        rst     38h
075e ff        rst     38h
075f ff        rst     38h
0760 ff        rst     38h
0761 ff        rst     38h
0762 ff        rst     38h
0763 ff        rst     38h
0764 ff        rst     38h
0765 ff        rst     38h
0766 ff        rst     38h
0767 ff        rst     38h
0768 ff        rst     38h
0769 ff        rst     38h
076a ff        rst     38h
076b ff        rst     38h
076c ff        rst     38h
076d ff        rst     38h
076e ff        rst     38h
076f ff        rst     38h
0770 ff        rst     38h
0771 ff        rst     38h
0772 ff        rst     38h
0773 ff        rst     38h
0774 ff        rst     38h
0775 ff        rst     38h
0776 ff        rst     38h
0777 ff        rst     38h
0778 ff        rst     38h
0779 ff        rst     38h
077a ff        rst     38h
077b ff        rst     38h
077c ff        rst     38h
077d ff        rst     38h
077e ff        rst     38h
077f ff        rst     38h
0780 ff        rst     38h
0781 ff        rst     38h
0782 ff        rst     38h
0783 ff        rst     38h
0784 ff        rst     38h
0785 ff        rst     38h
0786 ff        rst     38h
0787 ff        rst     38h
0788 ff        rst     38h
0789 ff        rst     38h
078a ff        rst     38h
078b ff        rst     38h
078c ff        rst     38h
078d ff        rst     38h
078e ff        rst     38h
078f ff        rst     38h
0790 ff        rst     38h
0791 ff        rst     38h
0792 ff        rst     38h
0793 ff        rst     38h
0794 ff        rst     38h
0795 ff        rst     38h
0796 ff        rst     38h
0797 ff        rst     38h
0798 ff        rst     38h
0799 ff        rst     38h
079a ff        rst     38h
079b ff        rst     38h
079c ff        rst     38h
079d ff        rst     38h
079e ff        rst     38h
079f ff        rst     38h
07a0 ff        rst     38h
07a1 ff        rst     38h
07a2 ff        rst     38h
07a3 ff        rst     38h
07a4 ff        rst     38h
07a5 ff        rst     38h
07a6 ff        rst     38h
07a7 ff        rst     38h
07a8 ff        rst     38h
07a9 ff        rst     38h
07aa ff        rst     38h
07ab ff        rst     38h
07ac ff        rst     38h
07ad ff        rst     38h
07ae ff        rst     38h
07af ff        rst     38h
07b0 ff        rst     38h
07b1 ff        rst     38h
07b2 ff        rst     38h
07b3 ff        rst     38h
07b4 ff        rst     38h
07b5 ff        rst     38h
07b6 ff        rst     38h
07b7 ff        rst     38h
07b8 ff        rst     38h
07b9 ff        rst     38h
07ba ff        rst     38h
07bb ff        rst     38h
07bc ff        rst     38h
07bd ff        rst     38h
07be ff        rst     38h
07bf ff        rst     38h
07c0 ff        rst     38h
07c1 ff        rst     38h
07c2 ff        rst     38h
07c3 ff        rst     38h
07c4 ff        rst     38h
07c5 ff        rst     38h
07c6 ff        rst     38h
07c7 ff        rst     38h
07c8 ff        rst     38h
07c9 ff        rst     38h
07ca ff        rst     38h
07cb ff        rst     38h
07cc ff        rst     38h
07cd ff        rst     38h
07ce ff        rst     38h
07cf ff        rst     38h
07d0 ff        rst     38h
07d1 ff        rst     38h
07d2 ff        rst     38h
07d3 ff        rst     38h
07d4 ff        rst     38h
07d5 ff        rst     38h
07d6 ff        rst     38h
07d7 ff        rst     38h
07d8 ff        rst     38h
07d9 ff        rst     38h
07da ff        rst     38h
07db ff        rst     38h
07dc ff        rst     38h
07dd ff        rst     38h
07de ff        rst     38h
07df ff        rst     38h
07e0 ff        rst     38h
07e1 ff        rst     38h
07e2 ff        rst     38h
07e3 ff        rst     38h
07e4 ff        rst     38h
07e5 ff        rst     38h
07e6 ff        rst     38h
07e7 ff        rst     38h
07e8 ff        rst     38h
07e9 ff        rst     38h
07ea ff        rst     38h
07eb ff        rst     38h
07ec ff        rst     38h
07ed ff        rst     38h
07ee ff        rst     38h
07ef ff        rst     38h
07f0 ff        rst     38h
07f1 ff        rst     38h
07f2 ff        rst     38h
07f3 ff        rst     38h
07f4 ff        rst     38h
07f5 ff        rst     38h
07f6 ff        rst     38h
07f7 ff        rst     38h
07f8 ff        rst     38h
07f9 ff        rst     38h
07fa ff        rst     38h
07fb ff        rst     38h
07fc ff        rst     38h
07fd ff        rst     38h
07fe ff        rst     38h
07ff ff        rst     38h
0800 f5        push    af
0801 c5        push    bc
0802 d5        push    de
0803 e5        push    hl
0804 cd0024    call    2400h
0807 cd0010    call    1000h
080a 3a28a0    ld      a,(0a028h)
080d cb5f      bit     3,a
080f c2d108    jp      nz,08d1h
0812 db05      in      a,(05h)
0814 cb7f      bit     7,a
0816 ca3408    jp      z,0834h
0819 3a22a0    ld      a,(0a022h)
081c cb5f      bit     3,a
081e c22708    jp      nz,0827h
0821 cd7408    call    0874h
0824 c3ec09    jp      09ech
0827 db00      in      a,(00h)
0829 cb67      bit     4,a
082b c2f908    jp      nz,08f9h
082e cdb808    call    08b8h
0831 c3ec09    jp      09ech
0834 3a20a0    ld      a,(0a020h)
0837 cb47      bit     0,a
0839 ca3f08    jp      z,083fh
083c cdb80b    call    0bb8h
083f 3a20a0    ld      a,(0a020h)
0842 cb7f      bit     7,a
0844 ca6108    jp      z,0861h
0847 3a20a0    ld      a,(0a020h)
084a cbbf      res     7,a
084c 3220a0    ld      (0a020h),a
084f 3a2ca0    ld      a,(0a02ch)
0852 fe00      cp      00h
0854 ca6108    jp      z,0861h
0857 00        nop     
0858 00        nop     
0859 00        nop     
085a 3e00      ld      a,00h
085c 322ca0    ld      (0a02ch),a
085f d301      out     (01h),a
0861 3a22a0    ld      a,(0a022h)
0864 cb5f      bit     3,a
0866 ca2209    jp      z,0922h
0869 3a22a0    ld      a,(0a022h)
086c cb9f      res     3,a
086e 3222a0    ld      (0a022h),a
0871 c32209    jp      0922h
0874 3a22a0    ld      a,(0a022h)
0877 cb57      bit     2,a
0879 c28b08    jp      nz,088bh
087c 2a0ea0    ld      hl,(0a00eh)
087f 223ea0    ld      (0a03eh),hl
0882 3a22a0    ld      a,(0a022h)
0885 cbd7      set     2,a
0887 3222a0    ld      (0a022h),a
088a c9        ret     

088b 2a3ea0    ld      hl,(0a03eh)
088e 2b        dec     hl
088f 223ea0    ld      (0a03eh),hl
0892 7c        ld      a,h
0893 fe00      cp      00h
0895 c0        ret     nz

0896 7d        ld      a,l
0897 fe00      cp      00h
0899 c0        ret     nz

089a db00      in      a,(00h)
089c cb67      bit     4,a
089e c2ad08    jp      nz,08adh
08a1 3a22a0    ld      a,(0a022h)
08a4 cb97      res     2,a
08a6 3222a0    ld      (0a022h),a
08a9 cdb808    call    08b8h
08ac c9        ret     

08ad 3a22a0    ld      a,(0a022h)
08b0 cbdf      set     3,a
08b2 cb97      res     2,a
08b4 3222a0    ld      (0a022h),a
08b7 c9        ret     

08b8 3a28a0    ld      a,(0a028h)
08bb cbdf      set     3,a
08bd 3228a0    ld      (0a028h),a
08c0 3a40a0    ld      a,(0a040h)
08c3 cbbf      res     7,a
08c5 d306      out     (06h),a
08c7 3240a0    ld      (0a040h),a
08ca 2a16a0    ld      hl,(0a016h)
08cd 2238a0    ld      (0a038h),hl
08d0 c9        ret     

08d1 2a38a0    ld      hl,(0a038h)
08d4 2b        dec     hl
08d5 2238a0    ld      (0a038h),hl
08d8 7c        ld      a,h
08d9 fe00      cp      00h
08db c2ec09    jp      nz,09ech
08de 7d        ld      a,l
08df fe00      cp      00h
08e1 c2ec09    jp      nz,09ech
08e4 3a40a0    ld      a,(0a040h)
08e7 cbff      set     7,a
08e9 d306      out     (06h),a
08eb 3240a0    ld      (0a040h),a
08ee 3a28a0    ld      a,(0a028h)
08f1 cb9f      res     3,a
08f3 3228a0    ld      (0a028h),a
08f6 c33408    jp      0834h
08f9 cdf80b    call    0bf8h
08fc cde70a    call    0ae7h
08ff cd1b0a    call    0a1bh
0902 cd6a0c    call    0c6ah
0905 cdf209    call    09f2h
0908 cdcf0a    call    0acfh
090b cd840a    call    0a84h
090e cd730b    call    0b73h
0911 cd760a    call    0a76h
0914 cdc00c    call    0cc0h
0917 3a26a0    ld      a,(0a026h)
091a cb4f      bit     1,a
091c ca5e09    jp      z,095eh
091f c3250b    jp      0b25h
0922 3a26a0    ld      a,(0a026h)
0925 cb4f      bit     1,a
0927 caec09    jp      z,09ech
092a cb8f      res     1,a
092c 3226a0    ld      (0a026h),a
092f 3a40a0    ld      a,(0a040h)
0932 cbb7      res     6,a
0934 cbaf      res     5,a
0936 cba7      res     4,a
0938 cb9f      res     3,a
093a cb97      res     2,a
093c d306      out     (06h),a
093e 3240a0    ld      (0a040h),a
0941 3a28a0    ld      a,(0a028h)
0944 cb67      bit     4,a
0946 c25309    jp      nz,0953h
0949 3a40a0    ld      a,(0a040h)
094c cb8f      res     1,a
094e d306      out     (06h),a
0950 3240a0    ld      (0a040h),a
0953 3a26a0    ld      a,(0a026h)
0956 cbc7      set     0,a
0958 3226a0    ld      (0a026h),a
095b c3ec09    jp      09ech
095e 3a20a0    ld      a,(0a020h)
0961 cb67      bit     4,a
0963 c2ec09    jp      nz,09ech
0966 3a22a0    ld      a,(0a022h)
0969 cb47      bit     0,a
096b ca8f09    jp      z,098fh
096e 3a34a0    ld      a,(0a034h)
0971 3d        dec     a
0972 3234a0    ld      (0a034h),a
0975 3a34a0    ld      a,(0a034h)
0978 fe00      cp      00h
097a caec09    jp      z,09ech
097d 3a22a0    ld      a,(0a022h)
0980 cb87      res     0,a
0982 3222a0    ld      (0a022h),a
0985 3a40a0    ld      a,(0a040h)
0988 cb9f      res     3,a
098a d306      out     (06h),a
098c 3240a0    ld      (0a040h),a
098f 3a20a0    ld      a,(0a020h)
0992 cb57      bit     2,a
0994 c2ec09    jp      nz,09ech
0997 db00      in      a,(00h)
0999 cb7f      bit     7,a
099b caa609    jp      z,09a6h
099e 3a22a0    ld      a,(0a022h)
09a1 cb7f      bit     7,a
09a3 caec09    jp      z,09ech
09a6 3a20a0    ld      a,(0a020h)
09a9 cb7f      bit     7,a
09ab c2b809    jp      nz,09b8h
09ae db00      in      a,(00h)
09b0 cb47      bit     0,a
09b2 c2c909    jp      nz,09c9h
09b5 c3ec09    jp      09ech
09b8 db00      in      a,(00h)
09ba cb4f      bit     1,a
09bc c2d609    jp      nz,09d6h
09bf db00      in      a,(00h)
09c1 cb57      bit     2,a
09c3 c2e109    jp      nz,09e1h
09c6 c3ec09    jp      09ech
09c9 3a20a0    ld      a,(0a020h)
09cc cbc7      set     0,a
09ce cbcf      set     1,a
09d0 3220a0    ld      (0a020h),a
09d3 c3ec09    jp      09ech
09d6 3a1ea0    ld      a,(0a01eh)
09d9 cbcf      set     1,a
09db 321ea0    ld      (0a01eh),a
09de c3ec09    jp      09ech
09e1 3a1ea0    ld      a,(0a01eh)
09e4 cbc7      set     0,a
09e6 321ea0    ld      (0a01eh),a
09e9 c3ec09    jp      09ech
09ec e1        pop     hl
09ed d1        pop     de
09ee c1        pop     bc
09ef f1        pop     af
09f0 ed4d      reti    

09f2 3a22a0    ld      a,(0a022h)
09f5 cb47      bit     0,a
09f7 ca490a    jp      z,0a49h
09fa 3a34a0    ld      a,(0a034h)
09fd 3d        dec     a
09fe 3234a0    ld      (0a034h),a
0a01 fe00      cp      00h
0a03 c2490a    jp      nz,0a49h
0a06 3a22a0    ld      a,(0a022h)
0a09 cb87      res     0,a
0a0b 3222a0    ld      (0a022h),a
0a0e 3a40a0    ld      a,(0a040h)
0a11 cb9f      res     3,a
0a13 d306      out     (06h),a
0a15 3240a0    ld      (0a040h),a
0a18 c3490a    jp      0a49h
0a1b 3a22a0    ld      a,(0a022h)
0a1e cb4f      bit     1,a
0a20 ca480a    jp      z,0a48h
0a23 2a32a0    ld      hl,(0a032h)
0a26 2b        dec     hl
0a27 2232a0    ld      (0a032h),hl
0a2a 7c        ld      a,h
0a2b fe00      cp      00h
0a2d c2480a    jp      nz,0a48h
0a30 7d        ld      a,l
0a31 fe00      cp      00h
0a33 c2480a    jp      nz,0a48h
0a36 3a22a0    ld      a,(0a022h)
0a39 cb8f      res     1,a
0a3b 3222a0    ld      (0a022h),a
0a3e 3a40a0    ld      a,(0a040h)
0a41 cba7      res     4,a
0a43 d306      out     (06h),a
0a45 3240a0    ld      (0a040h),a
0a48 c9        ret     

0a49 3a1ea0    ld      a,(0a01eh)
0a4c cb57      bit     2,a
0a4e c8        ret     z

0a4f 3a36a0    ld      a,(0a036h)
0a52 3d        dec     a
0a53 3236a0    ld      (0a036h),a
0a56 fe00      cp      00h
0a58 c0        ret     nz

0a59 3a42a0    ld      a,(0a042h)
0a5c cbff      set     7,a
0a5e cbb7      res     6,a
0a60 d304      out     (04h),a
0a62 3242a0    ld      (0a042h),a
0a65 3a1ea0    ld      a,(0a01eh)
0a68 cb97      res     2,a
0a6a 321ea0    ld      (0a01eh),a
0a6d 3a1ea0    ld      a,(0a01eh)
0a70 cbdf      set     3,a
0a72 321ea0    ld      (0a01eh),a
0a75 c9        ret     

0a76 db01      in      a,(01h)
0a78 cb47      bit     0,a
0a7a c0        ret     nz

0a7b 3a28a0    ld      a,(0a028h)
0a7e cbd7      set     2,a
0a80 3228a0    ld      (0a028h),a
0a83 c9        ret     

0a84 3a22a0    ld      a,(0a022h)
0a87 cb4f      bit     1,a
0a89 c2c30a    jp      nz,0ac3h
0a8c 3a28a0    ld      a,(0a028h)
0a8f cb57      bit     2,a
0a91 cac30a    jp      z,0ac3h
0a94 db01      in      a,(01h)
0a96 cb47      bit     0,a
0a98 c2c40a    jp      nz,0ac4h
0a9b 3a28a0    ld      a,(0a028h)
0a9e cb4f      bit     1,a
0aa0 c2c30a    jp      nz,0ac3h
0aa3 3a22a0    ld      a,(0a022h)
0aa6 cbcf      set     1,a
0aa8 3222a0    ld      (0a022h),a
0aab 3a40a0    ld      a,(0a040h)
0aae cbe7      set     4,a
0ab0 d306      out     (06h),a
0ab2 3240a0    ld      (0a040h),a
0ab5 2a10a0    ld      hl,(0a010h)
0ab8 2232a0    ld      (0a032h),hl
0abb 3a28a0    ld      a,(0a028h)
0abe cb97      res     2,a
0ac0 3228a0    ld      (0a028h),a
0ac3 c9        ret     

0ac4 3a28a0    ld      a,(0a028h)
0ac7 cb97      res     2,a
0ac9 3228a0    ld      (0a028h),a
0acc c3c30a    jp      0ac3h
0acf 3a1ea0    ld      a,(0a01eh)
0ad2 cb77      bit     6,a
0ad4 c2e60a    jp      nz,0ae6h
0ad7 db01      in      a,(01h)
0ad9 cb4f      bit     1,a
0adb cae60a    jp      z,0ae6h
0ade 3a1ea0    ld      a,(0a01eh)
0ae1 cbf7      set     6,a
0ae3 321ea0    ld      (0a01eh),a
0ae6 c9        ret     

0ae7 db01      in      a,(01h)
0ae9 cb57      bit     2,a
0aeb c2f30a    jp      nz,0af3h
0aee cb5f      bit     3,a
0af0 ca0c0b    jp      z,0b0ch
0af3 3a28a0    ld      a,(0a028h)
0af6 cb67      bit     4,a
0af8 c0        ret     nz

0af9 3a28a0    ld      a,(0a028h)
0afc cbe7      set     4,a
0afe 3228a0    ld      (0a028h),a
0b01 3a40a0    ld      a,(0a040h)
0b04 cbcf      set     1,a
0b06 d306      out     (06h),a
0b08 3240a0    ld      (0a040h),a
0b0b c9        ret     

0b0c 3a28a0    ld      a,(0a028h)
0b0f cb67      bit     4,a
0b11 c8        ret     z

0b12 3a40a0    ld      a,(0a040h)
0b15 cb8f      res     1,a
0b17 d306      out     (06h),a
0b19 3240a0    ld      (0a040h),a
0b1c 3a28a0    ld      a,(0a028h)
0b1f cba7      res     4,a
0b21 3228a0    ld      (0a028h),a
0b24 c9        ret     

0b25 3a26a0    ld      a,(0a026h)
0b28 cb77      bit     6,a
0b2a c23c0b    jp      nz,0b3ch
0b2d db00      in      a,(00h)
0b2f cb6f      bit     5,a
0b31 ca3c0b    jp      z,0b3ch
0b34 3a26a0    ld      a,(0a026h)
0b37 cbef      set     5,a
0b39 3226a0    ld      (0a026h),a
0b3c 3a24a0    ld      a,(0a024h)
0b3f cb7f      bit     7,a
0b41 c2ec09    jp      nz,09ech
0b44 db00      in      a,(00h)
0b46 cb5f      bit     3,a
0b48 c25d0b    jp      nz,0b5dh
0b4b 3a22a0    ld      a,(0a022h)
0b4e cb7f      bit     7,a
0b50 c25a0b    jp      nz,0b5ah
0b53 db00      in      a,(00h)
0b55 cb7f      bit     7,a
0b57 c2680b    jp      nz,0b68h
0b5a c3ec09    jp      09ech
0b5d 3a24a0    ld      a,(0a024h)
0b60 cbc7      set     0,a
0b62 3224a0    ld      (0a024h),a
0b65 c35a0b    jp      0b5ah
0b68 3a24a0    ld      a,(0a024h)
0b6b cbd7      set     2,a
0b6d 3224a0    ld      (0a024h),a
0b70 c35a0b    jp      0b5ah
0b73 db00      in      a,(00h)
0b75 cb77      bit     6,a
0b77 c29b0b    jp      nz,0b9bh
0b7a 3a28a0    ld      a,(0a028h)
0b7d cb6f      bit     5,a
0b7f c2b70b    jp      nz,0bb7h
0b82 3a40a0    ld      a,(0a040h)
0b85 cba7      res     4,a
0b87 cb97      res     2,a
0b89 d306      out     (06h),a
0b8b 3240a0    ld      (0a040h),a
0b8e 3a28a0    ld      a,(0a028h)
0b91 cbcf      set     1,a
0b93 cbef      set     5,a
0b95 3228a0    ld      (0a028h),a
0b98 c3b70b    jp      0bb7h
0b9b 3a28a0    ld      a,(0a028h)
0b9e cb6f      bit     5,a
0ba0 cab70b    jp      z,0bb7h
0ba3 3a28a0    ld      a,(0a028h)
0ba6 cb8f      res     1,a
0ba8 cbaf      res     5,a
0baa 3228a0    ld      (0a028h),a
0bad 3a40a0    ld      a,(0a040h)
0bb0 cbd7      set     2,a
0bb2 d306      out     (06h),a
0bb4 3240a0    ld      (0a040h),a
0bb7 c9        ret     

0bb8 3a20a0    ld      a,(0a020h)
0bbb cb47      bit     0,a
0bbd c8        ret     z

0bbe 3a20a0    ld      a,(0a020h)
0bc1 cb87      res     0,a
0bc3 cb8f      res     1,a
0bc5 cb97      res     2,a
0bc7 cba7      res     4,a
0bc9 3220a0    ld      (0a020h),a
0bcc 3a24a0    ld      a,(0a024h)
0bcf af        xor     a
0bd0 3224a0    ld      (0a024h),a
0bd3 3a1ea0    ld      a,(0a01eh)
0bd6 cb87      res     0,a
0bd8 cb8f      res     1,a
0bda 321ea0    ld      (0a01eh),a
0bdd 3a40a0    ld      a,(0a040h)
0be0 cbb7      res     6,a
0be2 d306      out     (06h),a
0be4 3240a0    ld      (0a040h),a
0be7 3a28a0    ld      a,(0a028h)
0bea cb67      bit     4,a
0bec c0        ret     nz

0bed 3a40a0    ld      a,(0a040h)
0bf0 cb8f      res     1,a
0bf2 d306      out     (06h),a
0bf4 3240a0    ld      (0a040h),a
0bf7 c9        ret     

0bf8 3a22a0    ld      a,(0a022h)
0bfb cb7f      bit     7,a
0bfd ca3a0c    jp      z,0c3ah
0c00 db01      in      a,(01h)
0c02 cb77      bit     6,a
0c04 c2690c    jp      nz,0c69h
0c07 3a22a0    ld      a,(0a022h)
0c0a cb77      bit     6,a
0c0c c2690c    jp      nz,0c69h
0c0f 3a26a0    ld      a,(0a026h)
0c12 cb4f      bit     1,a
0c14 ca2f0c    jp      z,0c2fh
0c17 3a22a0    ld      a,(0a022h)
0c1a cbf7      set     6,a
0c1c 3222a0    ld      (0a022h),a
0c1f 3a24a0    ld      a,(0a024h)
0c22 cb7f      bit     7,a
0c24 c2690c    jp      nz,0c69h
0c27 cbff      set     7,a
0c29 3224a0    ld      (0a024h),a
0c2c c3690c    jp      0c69h
0c2f 3a22a0    ld      a,(0a022h)
0c32 cbbf      res     7,a
0c34 3222a0    ld      (0a022h),a
0c37 c3690c    jp      0c69h
0c3a db01      in      a,(01h)
0c3c cb77      bit     6,a
0c3e ca690c    jp      z,0c69h
0c41 3a20a0    ld      a,(0a020h)
0c44 cb7f      bit     7,a
0c46 ca690c    jp      z,0c69h
0c49 3a26a0    ld      a,(0a026h)
0c4c cb4f      bit     1,a
0c4e ca610c    jp      z,0c61h
0c51 3a24a0    ld      a,(0a024h)
0c54 cb7f      bit     7,a
0c56 c2690c    jp      nz,0c69h
0c59 cbff      set     7,a
0c5b 3224a0    ld      (0a024h),a
0c5e c3690c    jp      0c69h
0c61 3a22a0    ld      a,(0a022h)
0c64 cbff      set     7,a
0c66 3222a0    ld      (0a022h),a
0c69 c9        ret     

0c6a 3a40a0    ld      a,(0a040h)
0c6d cb6f      bit     5,a
0c6f c8        ret     z

0c70 2a3ca0    ld      hl,(0a03ch)
0c73 2b        dec     hl
0c74 223ca0    ld      (0a03ch),hl
0c77 7c        ld      a,h
0c78 fe00      cp      00h
0c7a c0        ret     nz

0c7b 7d        ld      a,l
0c7c fe00      cp      00h
0c7e c0        ret     nz

0c7f 2a18a0    ld      hl,(0a018h)
0c82 ed5b3aa0  ld      de,(0a03ah)
0c86 7c        ld      a,h
0c87 92        sub     d
0c88 ca910c    jp      z,0c91h
0c8b fab30c    jp      m,0cb3h
0c8e c3a00c    jp      0ca0h
0c91 2a18a0    ld      hl,(0a018h)
0c94 ed5b3aa0  ld      de,(0a03ah)
0c98 7d        ld      a,l
0c99 93        sub     e
0c9a cab30c    jp      z,0cb3h
0c9d fab30c    jp      m,0cb3h
0ca0 3a40a0    ld      a,(0a040h)
0ca3 cbaf      res     5,a
0ca5 d306      out     (06h),a
0ca7 3240a0    ld      (0a040h),a
0caa 3a24a0    ld      a,(0a024h)
0cad cbff      set     7,a
0caf 3224a0    ld      (0a024h),a
0cb2 c9        ret     

0cb3 2a1aa0    ld      hl,(0a01ah)
0cb6 223ca0    ld      (0a03ch),hl
0cb9 210000    ld      hl,0000h
0cbc 223aa0    ld      (0a03ah),hl
0cbf c9        ret     

0cc0 3a26a0    ld      a,(0a026h)
0cc3 cb77      bit     6,a
0cc5 c8        ret     z

0cc6 3a26a0    ld      a,(0a026h)
0cc9 cb7f      bit     7,a
0ccb c2f10c    jp      nz,0cf1h
0cce 3a44a0    ld      a,(0a044h)
0cd1 3d        dec     a
0cd2 3244a0    ld      (0a044h),a
0cd5 fe00      cp      00h
0cd7 c0        ret     nz

0cd8 3a26a0    ld      a,(0a026h)
0cdb cbff      set     7,a
0cdd 3226a0    ld      (0a026h),a
0ce0 db01      in      a,(01h)
0ce2 cb7f      bit     7,a
0ce4 caec0c    jp      z,0cech
0ce7 3ea0      ld      a,0a0h
0ce9 d301      out     (01h),a
0ceb c9        ret     

0cec 3e20      ld      a,20h
0cee d301      out     (01h),a
0cf0 c9        ret     

0cf1 3e00      ld      a,00h
0cf3 cb6f      bit     5,a
0cf5 c0        ret     nz

0cf6 3a26a0    ld      a,(0a026h)
0cf9 cbb7      res     6,a
0cfb cbbf      res     7,a
0cfd 3226a0    ld      (0a026h),a
0d00 c9        ret     

0d01 ff        rst     38h
0d02 ff        rst     38h
0d03 ff        rst     38h
0d04 ff        rst     38h
0d05 ff        rst     38h
0d06 ff        rst     38h
0d07 ff        rst     38h
0d08 ff        rst     38h
0d09 ff        rst     38h
0d0a ff        rst     38h
0d0b ff        rst     38h
0d0c ff        rst     38h
0d0d ff        rst     38h
0d0e ff        rst     38h
0d0f ff        rst     38h
0d10 ff        rst     38h
0d11 ff        rst     38h
0d12 ff        rst     38h
0d13 ff        rst     38h
0d14 ff        rst     38h
0d15 ff        rst     38h
0d16 ff        rst     38h
0d17 ff        rst     38h
0d18 ff        rst     38h
0d19 ff        rst     38h
0d1a ff        rst     38h
0d1b ff        rst     38h
0d1c ff        rst     38h
0d1d ff        rst     38h
0d1e ff        rst     38h
0d1f ff        rst     38h
0d20 ff        rst     38h
0d21 ff        rst     38h
0d22 ff        rst     38h
0d23 ff        rst     38h
0d24 ff        rst     38h
0d25 ff        rst     38h
0d26 ff        rst     38h
0d27 ff        rst     38h
0d28 ff        rst     38h
0d29 ff        rst     38h
0d2a ff        rst     38h
0d2b ff        rst     38h
0d2c ff        rst     38h
0d2d ff        rst     38h
0d2e ff        rst     38h
0d2f ff        rst     38h
0d30 ff        rst     38h
0d31 ff        rst     38h
0d32 ff        rst     38h
0d33 ff        rst     38h
0d34 ff        rst     38h
0d35 ff        rst     38h
0d36 ff        rst     38h
0d37 ff        rst     38h
0d38 ff        rst     38h
0d39 ff        rst     38h
0d3a ff        rst     38h
0d3b ff        rst     38h
0d3c ff        rst     38h
0d3d ff        rst     38h
0d3e ff        rst     38h
0d3f ff        rst     38h
0d40 ff        rst     38h
0d41 ff        rst     38h
0d42 ff        rst     38h
0d43 ff        rst     38h
0d44 ff        rst     38h
0d45 ff        rst     38h
0d46 ff        rst     38h
0d47 ff        rst     38h
0d48 ff        rst     38h
0d49 ff        rst     38h
0d4a ff        rst     38h
0d4b ff        rst     38h
0d4c ff        rst     38h
0d4d ff        rst     38h
0d4e ff        rst     38h
0d4f ff        rst     38h
0d50 ff        rst     38h
0d51 ff        rst     38h
0d52 ff        rst     38h
0d53 ff        rst     38h
0d54 ff        rst     38h
0d55 ff        rst     38h
0d56 ff        rst     38h
0d57 ff        rst     38h
0d58 ff        rst     38h
0d59 ff        rst     38h
0d5a ff        rst     38h
0d5b ff        rst     38h
0d5c ff        rst     38h
0d5d ff        rst     38h
0d5e ff        rst     38h
0d5f ff        rst     38h
0d60 ff        rst     38h
0d61 ff        rst     38h
0d62 ff        rst     38h
0d63 ff        rst     38h
0d64 ff        rst     38h
0d65 ff        rst     38h
0d66 ff        rst     38h
0d67 ff        rst     38h
0d68 ff        rst     38h
0d69 ff        rst     38h
0d6a ff        rst     38h
0d6b ff        rst     38h
0d6c ff        rst     38h
0d6d ff        rst     38h
0d6e ff        rst     38h
0d6f ff        rst     38h
0d70 ff        rst     38h
0d71 ff        rst     38h
0d72 ff        rst     38h
0d73 ff        rst     38h
0d74 ff        rst     38h
0d75 ff        rst     38h
0d76 ff        rst     38h
0d77 ff        rst     38h
0d78 ff        rst     38h
0d79 ff        rst     38h
0d7a ff        rst     38h
0d7b ff        rst     38h
0d7c ff        rst     38h
0d7d ff        rst     38h
0d7e ff        rst     38h
0d7f ff        rst     38h
0d80 ff        rst     38h
0d81 ff        rst     38h
0d82 ff        rst     38h
0d83 ff        rst     38h
0d84 ff        rst     38h
0d85 ff        rst     38h
0d86 ff        rst     38h
0d87 ff        rst     38h
0d88 ff        rst     38h
0d89 ff        rst     38h
0d8a ff        rst     38h
0d8b ff        rst     38h
0d8c ff        rst     38h
0d8d ff        rst     38h
0d8e ff        rst     38h
0d8f ff        rst     38h
0d90 ff        rst     38h
0d91 ff        rst     38h
0d92 ff        rst     38h
0d93 ff        rst     38h
0d94 ff        rst     38h
0d95 ff        rst     38h
0d96 ff        rst     38h
0d97 ff        rst     38h
0d98 ff        rst     38h
0d99 ff        rst     38h
0d9a ff        rst     38h
0d9b ff        rst     38h
0d9c ff        rst     38h
0d9d ff        rst     38h
0d9e ff        rst     38h
0d9f ff        rst     38h
0da0 ff        rst     38h
0da1 ff        rst     38h
0da2 ff        rst     38h
0da3 ff        rst     38h
0da4 ff        rst     38h
0da5 ff        rst     38h
0da6 ff        rst     38h
0da7 ff        rst     38h
0da8 ff        rst     38h
0da9 ff        rst     38h
0daa ff        rst     38h
0dab ff        rst     38h
0dac ff        rst     38h
0dad ff        rst     38h
0dae ff        rst     38h
0daf ff        rst     38h
0db0 ff        rst     38h
0db1 ff        rst     38h
0db2 ff        rst     38h
0db3 ff        rst     38h
0db4 ff        rst     38h
0db5 ff        rst     38h
0db6 ff        rst     38h
0db7 ff        rst     38h
0db8 ff        rst     38h
0db9 ff        rst     38h
0dba ff        rst     38h
0dbb ff        rst     38h
0dbc ff        rst     38h
0dbd ff        rst     38h
0dbe ff        rst     38h
0dbf ff        rst     38h
0dc0 ff        rst     38h
0dc1 ff        rst     38h
0dc2 ff        rst     38h
0dc3 ff        rst     38h
0dc4 ff        rst     38h
0dc5 ff        rst     38h
0dc6 ff        rst     38h
0dc7 ff        rst     38h
0dc8 ff        rst     38h
0dc9 ff        rst     38h
0dca ff        rst     38h
0dcb ff        rst     38h
0dcc ff        rst     38h
0dcd ff        rst     38h
0dce ff        rst     38h
0dcf ff        rst     38h
0dd0 ff        rst     38h
0dd1 ff        rst     38h
0dd2 ff        rst     38h
0dd3 ff        rst     38h
0dd4 ff        rst     38h
0dd5 ff        rst     38h
0dd6 ff        rst     38h
0dd7 ff        rst     38h
0dd8 ff        rst     38h
0dd9 ff        rst     38h
0dda ff        rst     38h
0ddb ff        rst     38h
0ddc ff        rst     38h
0ddd ff        rst     38h
0dde ff        rst     38h
0ddf ff        rst     38h
0de0 ff        rst     38h
0de1 ff        rst     38h
0de2 ff        rst     38h
0de3 ff        rst     38h
0de4 ff        rst     38h
0de5 ff        rst     38h
0de6 ff        rst     38h
0de7 ff        rst     38h
0de8 ff        rst     38h
0de9 ff        rst     38h
0dea ff        rst     38h
0deb ff        rst     38h
0dec ff        rst     38h
0ded ff        rst     38h
0dee ff        rst     38h
0def ff        rst     38h
0df0 ff        rst     38h
0df1 ff        rst     38h
0df2 ff        rst     38h
0df3 ff        rst     38h
0df4 ff        rst     38h
0df5 ff        rst     38h
0df6 ff        rst     38h
0df7 ff        rst     38h
0df8 ff        rst     38h
0df9 ff        rst     38h
0dfa ff        rst     38h
0dfb ff        rst     38h
0dfc ff        rst     38h
0dfd ff        rst     38h
0dfe ff        rst     38h
0dff ff        rst     38h
0e00 ff        rst     38h
0e01 ff        rst     38h
0e02 ff        rst     38h
0e03 ff        rst     38h
0e04 ff        rst     38h
0e05 ff        rst     38h
0e06 ff        rst     38h
0e07 ff        rst     38h
0e08 ff        rst     38h
0e09 ff        rst     38h
0e0a ff        rst     38h
0e0b ff        rst     38h
0e0c ff        rst     38h
0e0d ff        rst     38h
0e0e ff        rst     38h
0e0f ff        rst     38h
0e10 ff        rst     38h
0e11 ff        rst     38h
0e12 ff        rst     38h
0e13 ff        rst     38h
0e14 ff        rst     38h
0e15 ff        rst     38h
0e16 ff        rst     38h
0e17 ff        rst     38h
0e18 ff        rst     38h
0e19 ff        rst     38h
0e1a ff        rst     38h
0e1b ff        rst     38h
0e1c ff        rst     38h
0e1d ff        rst     38h
0e1e ff        rst     38h
0e1f ff        rst     38h
0e20 ff        rst     38h
0e21 ff        rst     38h
0e22 ff        rst     38h
0e23 ff        rst     38h
0e24 ff        rst     38h
0e25 ff        rst     38h
0e26 ff        rst     38h
0e27 ff        rst     38h
0e28 ff        rst     38h
0e29 ff        rst     38h
0e2a ff        rst     38h
0e2b ff        rst     38h
0e2c ff        rst     38h
0e2d ff        rst     38h
0e2e ff        rst     38h
0e2f ff        rst     38h
0e30 ff        rst     38h
0e31 ff        rst     38h
0e32 ff        rst     38h
0e33 ff        rst     38h
0e34 ff        rst     38h
0e35 ff        rst     38h
0e36 ff        rst     38h
0e37 ff        rst     38h
0e38 ff        rst     38h
0e39 ff        rst     38h
0e3a ff        rst     38h
0e3b ff        rst     38h
0e3c ff        rst     38h
0e3d ff        rst     38h
0e3e ff        rst     38h
0e3f ff        rst     38h
0e40 ff        rst     38h
0e41 ff        rst     38h
0e42 ff        rst     38h
0e43 ff        rst     38h
0e44 ff        rst     38h
0e45 ff        rst     38h
0e46 ff        rst     38h
0e47 ff        rst     38h
0e48 ff        rst     38h
0e49 ff        rst     38h
0e4a ff        rst     38h
0e4b ff        rst     38h
0e4c ff        rst     38h
0e4d ff        rst     38h
0e4e ff        rst     38h
0e4f ff        rst     38h
0e50 ff        rst     38h
0e51 ff        rst     38h
0e52 ff        rst     38h
0e53 ff        rst     38h
0e54 ff        rst     38h
0e55 ff        rst     38h
0e56 ff        rst     38h
0e57 ff        rst     38h
0e58 ff        rst     38h
0e59 ff        rst     38h
0e5a ff        rst     38h
0e5b ff        rst     38h
0e5c ff        rst     38h
0e5d ff        rst     38h
0e5e ff        rst     38h
0e5f ff        rst     38h
0e60 ff        rst     38h
0e61 ff        rst     38h
0e62 ff        rst     38h
0e63 ff        rst     38h
0e64 ff        rst     38h
0e65 ff        rst     38h
0e66 ff        rst     38h
0e67 ff        rst     38h
0e68 ff        rst     38h
0e69 ff        rst     38h
0e6a ff        rst     38h
0e6b ff        rst     38h
0e6c ff        rst     38h
0e6d ff        rst     38h
0e6e ff        rst     38h
0e6f ff        rst     38h
0e70 ff        rst     38h
0e71 ff        rst     38h
0e72 ff        rst     38h
0e73 ff        rst     38h
0e74 ff        rst     38h
0e75 ff        rst     38h
0e76 ff        rst     38h
0e77 ff        rst     38h
0e78 ff        rst     38h
0e79 ff        rst     38h
0e7a ff        rst     38h
0e7b ff        rst     38h
0e7c ff        rst     38h
0e7d ff        rst     38h
0e7e ff        rst     38h
0e7f ff        rst     38h
0e80 ff        rst     38h
0e81 ff        rst     38h
0e82 ff        rst     38h
0e83 ff        rst     38h
0e84 ff        rst     38h
0e85 ff        rst     38h
0e86 ff        rst     38h
0e87 ff        rst     38h
0e88 ff        rst     38h
0e89 ff        rst     38h
0e8a ff        rst     38h
0e8b ff        rst     38h
0e8c ff        rst     38h
0e8d ff        rst     38h
0e8e ff        rst     38h
0e8f ff        rst     38h
0e90 ff        rst     38h
0e91 ff        rst     38h
0e92 ff        rst     38h
0e93 ff        rst     38h
0e94 ff        rst     38h
0e95 ff        rst     38h
0e96 ff        rst     38h
0e97 ff        rst     38h
0e98 ff        rst     38h
0e99 ff        rst     38h
0e9a ff        rst     38h
0e9b ff        rst     38h
0e9c ff        rst     38h
0e9d ff        rst     38h
0e9e ff        rst     38h
0e9f ff        rst     38h
0ea0 ff        rst     38h
0ea1 ff        rst     38h
0ea2 ff        rst     38h
0ea3 ff        rst     38h
0ea4 ff        rst     38h
0ea5 ff        rst     38h
0ea6 ff        rst     38h
0ea7 ff        rst     38h
0ea8 ff        rst     38h
0ea9 ff        rst     38h
0eaa ff        rst     38h
0eab ff        rst     38h
0eac ff        rst     38h
0ead ff        rst     38h
0eae ff        rst     38h
0eaf ff        rst     38h
0eb0 ff        rst     38h
0eb1 ff        rst     38h
0eb2 ff        rst     38h
0eb3 ff        rst     38h
0eb4 ff        rst     38h
0eb5 ff        rst     38h
0eb6 ff        rst     38h
0eb7 ff        rst     38h
0eb8 ff        rst     38h
0eb9 ff        rst     38h
0eba ff        rst     38h
0ebb ff        rst     38h
0ebc ff        rst     38h
0ebd ff        rst     38h
0ebe ff        rst     38h
0ebf ff        rst     38h
0ec0 ff        rst     38h
0ec1 ff        rst     38h
0ec2 ff        rst     38h
0ec3 ff        rst     38h
0ec4 ff        rst     38h
0ec5 ff        rst     38h
0ec6 ff        rst     38h
0ec7 ff        rst     38h
0ec8 ff        rst     38h
0ec9 ff        rst     38h
0eca ff        rst     38h
0ecb ff        rst     38h
0ecc ff        rst     38h
0ecd ff        rst     38h
0ece ff        rst     38h
0ecf ff        rst     38h
0ed0 ff        rst     38h
0ed1 ff        rst     38h
0ed2 ff        rst     38h
0ed3 ff        rst     38h
0ed4 ff        rst     38h
0ed5 ff        rst     38h
0ed6 ff        rst     38h
0ed7 ff        rst     38h
0ed8 ff        rst     38h
0ed9 ff        rst     38h
0eda ff        rst     38h
0edb ff        rst     38h
0edc ff        rst     38h
0edd ff        rst     38h
0ede ff        rst     38h
0edf ff        rst     38h
0ee0 ff        rst     38h
0ee1 ff        rst     38h
0ee2 ff        rst     38h
0ee3 ff        rst     38h
0ee4 ff        rst     38h
0ee5 ff        rst     38h
0ee6 ff        rst     38h
0ee7 ff        rst     38h
0ee8 ff        rst     38h
0ee9 ff        rst     38h
0eea ff        rst     38h
0eeb ff        rst     38h
0eec ff        rst     38h
0eed ff        rst     38h
0eee ff        rst     38h
0eef ff        rst     38h
0ef0 ff        rst     38h
0ef1 ff        rst     38h
0ef2 ff        rst     38h
0ef3 ff        rst     38h
0ef4 ff        rst     38h
0ef5 ff        rst     38h
0ef6 ff        rst     38h
0ef7 ff        rst     38h
0ef8 ff        rst     38h
0ef9 ff        rst     38h
0efa ff        rst     38h
0efb ff        rst     38h
0efc ff        rst     38h
0efd ff        rst     38h
0efe ff        rst     38h
0eff ff        rst     38h
0f00 ff        rst     38h
0f01 ff        rst     38h
0f02 ff        rst     38h
0f03 ff        rst     38h
0f04 ff        rst     38h
0f05 ff        rst     38h
0f06 ff        rst     38h
0f07 ff        rst     38h
0f08 ff        rst     38h
0f09 ff        rst     38h
0f0a ff        rst     38h
0f0b ff        rst     38h
0f0c ff        rst     38h
0f0d ff        rst     38h
0f0e ff        rst     38h
0f0f ff        rst     38h
0f10 ff        rst     38h
0f11 ff        rst     38h
0f12 ff        rst     38h
0f13 ff        rst     38h
0f14 ff        rst     38h
0f15 ff        rst     38h
0f16 ff        rst     38h
0f17 ff        rst     38h
0f18 ff        rst     38h
0f19 ff        rst     38h
0f1a ff        rst     38h
0f1b ff        rst     38h
0f1c ff        rst     38h
0f1d ff        rst     38h
0f1e ff        rst     38h
0f1f ff        rst     38h
0f20 ff        rst     38h
0f21 ff        rst     38h
0f22 ff        rst     38h
0f23 ff        rst     38h
0f24 ff        rst     38h
0f25 ff        rst     38h
0f26 ff        rst     38h
0f27 ff        rst     38h
0f28 ff        rst     38h
0f29 ff        rst     38h
0f2a ff        rst     38h
0f2b ff        rst     38h
0f2c ff        rst     38h
0f2d ff        rst     38h
0f2e ff        rst     38h
0f2f ff        rst     38h
0f30 ff        rst     38h
0f31 ff        rst     38h
0f32 ff        rst     38h
0f33 ff        rst     38h
0f34 ff        rst     38h
0f35 ff        rst     38h
0f36 ff        rst     38h
0f37 ff        rst     38h
0f38 ff        rst     38h
0f39 ff        rst     38h
0f3a ff        rst     38h
0f3b ff        rst     38h
0f3c ff        rst     38h
0f3d ff        rst     38h
0f3e ff        rst     38h
0f3f ff        rst     38h
0f40 ff        rst     38h
0f41 ff        rst     38h
0f42 ff        rst     38h
0f43 ff        rst     38h
0f44 ff        rst     38h
0f45 ff        rst     38h
0f46 ff        rst     38h
0f47 ff        rst     38h
0f48 ff        rst     38h
0f49 ff        rst     38h
0f4a ff        rst     38h
0f4b ff        rst     38h
0f4c ff        rst     38h
0f4d ff        rst     38h
0f4e ff        rst     38h
0f4f ff        rst     38h
0f50 ff        rst     38h
0f51 ff        rst     38h
0f52 ff        rst     38h
0f53 ff        rst     38h
0f54 ff        rst     38h
0f55 ff        rst     38h
0f56 ff        rst     38h
0f57 ff        rst     38h
0f58 ff        rst     38h
0f59 ff        rst     38h
0f5a ff        rst     38h
0f5b ff        rst     38h
0f5c ff        rst     38h
0f5d ff        rst     38h
0f5e ff        rst     38h
0f5f ff        rst     38h
0f60 ff        rst     38h
0f61 ff        rst     38h
0f62 ff        rst     38h
0f63 ff        rst     38h
0f64 ff        rst     38h
0f65 ff        rst     38h
0f66 ff        rst     38h
0f67 ff        rst     38h
0f68 ff        rst     38h
0f69 ff        rst     38h
0f6a ff        rst     38h
0f6b ff        rst     38h
0f6c ff        rst     38h
0f6d ff        rst     38h
0f6e ff        rst     38h
0f6f ff        rst     38h
0f70 ff        rst     38h
0f71 ff        rst     38h
0f72 ff        rst     38h
0f73 ff        rst     38h
0f74 ff        rst     38h
0f75 ff        rst     38h
0f76 ff        rst     38h
0f77 ff        rst     38h
0f78 ff        rst     38h
0f79 ff        rst     38h
0f7a ff        rst     38h
0f7b ff        rst     38h
0f7c ff        rst     38h
0f7d ff        rst     38h
0f7e ff        rst     38h
0f7f ff        rst     38h
0f80 ff        rst     38h
0f81 ff        rst     38h
0f82 ff        rst     38h
0f83 ff        rst     38h
0f84 ff        rst     38h
0f85 ff        rst     38h
0f86 ff        rst     38h
0f87 ff        rst     38h
0f88 ff        rst     38h
0f89 ff        rst     38h
0f8a ff        rst     38h
0f8b ff        rst     38h
0f8c ff        rst     38h
0f8d ff        rst     38h
0f8e ff        rst     38h
0f8f ff        rst     38h
0f90 ff        rst     38h
0f91 ff        rst     38h
0f92 ff        rst     38h
0f93 ff        rst     38h
0f94 ff        rst     38h
0f95 ff        rst     38h
0f96 ff        rst     38h
0f97 ff        rst     38h
0f98 ff        rst     38h
0f99 ff        rst     38h
0f9a ff        rst     38h
0f9b ff        rst     38h
0f9c ff        rst     38h
0f9d ff        rst     38h
0f9e ff        rst     38h
0f9f ff        rst     38h
0fa0 ff        rst     38h
0fa1 ff        rst     38h
0fa2 ff        rst     38h
0fa3 ff        rst     38h
0fa4 ff        rst     38h
0fa5 ff        rst     38h
0fa6 ff        rst     38h
0fa7 ff        rst     38h
0fa8 ff        rst     38h
0fa9 ff        rst     38h
0faa ff        rst     38h
0fab ff        rst     38h
0fac ff        rst     38h
0fad ff        rst     38h
0fae ff        rst     38h
0faf ff        rst     38h
0fb0 ff        rst     38h
0fb1 ff        rst     38h
0fb2 ff        rst     38h
0fb3 ff        rst     38h
0fb4 ff        rst     38h
0fb5 ff        rst     38h
0fb6 ff        rst     38h
0fb7 ff        rst     38h
0fb8 ff        rst     38h
0fb9 ff        rst     38h
0fba ff        rst     38h
0fbb ff        rst     38h
0fbc ff        rst     38h
0fbd ff        rst     38h
0fbe ff        rst     38h
0fbf ff        rst     38h
0fc0 ff        rst     38h
0fc1 ff        rst     38h
0fc2 ff        rst     38h
0fc3 ff        rst     38h
0fc4 ff        rst     38h
0fc5 ff        rst     38h
0fc6 ff        rst     38h
0fc7 ff        rst     38h
0fc8 ff        rst     38h
0fc9 ff        rst     38h
0fca ff        rst     38h
0fcb ff        rst     38h
0fcc ff        rst     38h
0fcd ff        rst     38h
0fce ff        rst     38h
0fcf ff        rst     38h
0fd0 ff        rst     38h
0fd1 ff        rst     38h
0fd2 ff        rst     38h
0fd3 ff        rst     38h
0fd4 ff        rst     38h
0fd5 ff        rst     38h
0fd6 ff        rst     38h
0fd7 ff        rst     38h
0fd8 ff        rst     38h
0fd9 ff        rst     38h
0fda ff        rst     38h
0fdb ff        rst     38h
0fdc ff        rst     38h
0fdd ff        rst     38h
0fde ff        rst     38h
0fdf ff        rst     38h
0fe0 ff        rst     38h
0fe1 ff        rst     38h
0fe2 ff        rst     38h
0fe3 ff        rst     38h
0fe4 ff        rst     38h
0fe5 ff        rst     38h
0fe6 ff        rst     38h
0fe7 ff        rst     38h
0fe8 ff        rst     38h
0fe9 ff        rst     38h
0fea ff        rst     38h
0feb ff        rst     38h
0fec ff        rst     38h
0fed ff        rst     38h
0fee ff        rst     38h
0fef ff        rst     38h
0ff0 ff        rst     38h
0ff1 ff        rst     38h
0ff2 ff        rst     38h
0ff3 ff        rst     38h
0ff4 ff        rst     38h
0ff5 ff        rst     38h
0ff6 ff        rst     38h
0ff7 ff        rst     38h
0ff8 ff        rst     38h
0ff9 ff        rst     38h
0ffa ff        rst     38h
0ffb ff        rst     38h
0ffc ff        rst     38h
0ffd ff        rst     38h
0ffe ff        rst     38h
0fff ff        rst     38h
1000 ed5b3ca1  ld      de,(0a13ch)
1004 42        ld      b,d
1005 4b        ld      c,e
1006 3a08a1    ld      a,(0a108h)
1009 cb47      bit     0,a
100b ca1210    jp      z,1012h
100e 2a2ca1    ld      hl,(0a12ch)
1011 e9        jp      (hl)
1012 3a08a1    ld      a,(0a108h)
1015 cb4f      bit     1,a
1017 ca1e10    jp      z,101eh
101a 2a30a1    ld      hl,(0a130h)
101d e9        jp      (hl)
101e 3a08a1    ld      a,(0a108h)
1021 cb67      bit     4,a
1023 ca2a10    jp      z,102ah
1026 2a4ca1    ld      hl,(0a14ch)
1029 e9        jp      (hl)
102a 3e00      ld      a,00h
102c d3f5      out     (0f5h),a
102e dbf5      in      a,(0f5h)
1030 cb47      bit     0,a
1032 c23610    jp      nz,1036h
1035 c9        ret     

1036 dbf4      in      a,(0f4h)
1038 3254a1    ld      (0a154h),a
103b fe18      cp      18h
103d ca0212    jp      z,1202h
1040 3a2ca0    ld      a,(0a02ch)
1043 fe00      cp      00h
1045 c27710    jp      nz,1077h
1048 3a54a1    ld      a,(0a154h)
104b fe61      cp      61h
104d ca3812    jp      z,1238h
1050 fe62      cp      62h
1052 ca001f    jp      z,1f00h
1055 fe63      cp      63h
1057 ca8114    jp      z,1481h
105a fe65      cp      65h
105c ca0f1a    jp      z,1a0fh
105f fe64      cp      64h
1061 caff16    jp      z,16ffh
1064 fe66      cp      66h
1066 ca501c    jp      z,1c50h
1069 fe2a      cp      2ah
106b cada18    jp      z,18dah
106e d3f4      out     (0f4h),a
1070 50        ld      d,b
1071 59        ld      e,c
1072 ed533ca1  ld      (0a13ch),de
1076 c9        ret     

1077 3a2ca0    ld      a,(0a02ch)
107a cb47      bit     0,a
107c c29e11    jp      nz,119eh
107f cb4f      bit     1,a
1081 c25f11    jp      nz,115fh
1084 cb57      bit     2,a
1086 c22011    jp      nz,1120h
1089 cb5f      bit     3,a
108b c2db10    jp      nz,10dbh
108e cb67      bit     4,a
1090 c29410    jp      nz,1094h
1093 c9        ret     

1094 219d10    ld      hl,109dh
1097 cdd124    call    24d1h
109a c3b610    jp      10b6h
109d 00        nop     
109e 50        ld      d,b
109f 41        ld      b,c
10a0 52        ld      d,d
10a1 54        ld      d,h
10a2 2054      jr      nz,10f8h
10a4 45        ld      b,l
10a5 53        ld      d,e
10a6 54        ld      d,h
10a7 45        ld      b,l
10a8 44        ld      b,h
10a9 2048      jr      nz,10f3h
10ab 49        ld      c,c
10ac 47        ld      b,a
10ad 48        ld      c,b
10ae 2041      jr      nz,10f1h
10b0 4e        ld      c,(hl)
10b1 44        ld      b,h
10b2 204c      jr      nz,1100h
10b4 4f        ld      c,a
10b5 57        ld      d,a
10b6 00        nop     
10b7 21c010    ld      hl,10c0h
10ba cdd624    call    24d6h
10bd c3d910    jp      10d9h
10c0 1843      jr      1105h
10c2 48        ld      c,b
10c3 45        ld      b,l
10c4 43        ld      b,e
10c5 4b        ld      c,e
10c6 2043      jr      nz,110bh
10c8 4f        ld      c,a
10c9 4d        ld      c,l
10ca 50        ld      d,b
10cb 41        ld      b,c
10cc 52        ld      d,d
10cd 41        ld      b,c
10ce 54        ld      d,h
10cf 4f        ld      c,a
10d0 52        ld      d,d
10d1 2053      jr      nz,1126h
10d3 45        ld      b,l
10d4 54        ld      d,h
10d5 54        ld      d,h
10d6 49        ld      c,c
10d7 4e        ld      c,(hl)
10d8 47        ld      b,a
10d9 00        nop     
10da c9        ret     

10db 21e410    ld      hl,10e4h
10de cdd124    call    24d1h
10e1 c3fd10    jp      10fdh
10e4 00        nop     
10e5 54        ld      d,h
10e6 45        ld      b,l
10e7 53        ld      d,e
10e8 54        ld      d,h
10e9 2052      jr      nz,113dh
10eb 45        ld      b,l
10ec 53        ld      d,e
10ed 55        ld      d,l
10ee 4c        ld      c,h
10ef 54        ld      d,h
10f0 53        ld      d,e
10f1 204e      jr      nz,1141h
10f3 4f        ld      c,a
10f4 54        ld      d,h
10f5 2050      jr      nz,1147h
10f7 52        ld      d,d
10f8 45        ld      b,l
10f9 53        ld      d,e
10fa 45        ld      b,l
10fb 4e        ld      c,(hl)
10fc 54        ld      d,h
10fd 00        nop     
10fe 210711    ld      hl,1107h
1101 cdd624    call    24d6h
1104 c31e11    jp      111eh
1107 19        add     hl,de
1108 43        ld      b,e
1109 48        ld      c,b
110a 45        ld      b,l
110b 43        ld      b,e
110c 4b        ld      c,e
110d 2043      jr      nz,1152h
110f 4f        ld      c,a
1110 4d        ld      c,l
1111 50        ld      d,b
1112 41        ld      b,c
1113 52        ld      d,d
1114 41        ld      b,c
1115 54        ld      d,h
1116 4f        ld      c,a
1117 52        ld      d,d
1118 2050      jr      nz,116ah
111a 4f        ld      c,a
111b 57        ld      d,a
111c 45        ld      b,l
111d 52        ld      d,d
111e 00        nop     
111f c9        ret     

1120 212911    ld      hl,1129h
1123 cdd124    call    24d1h
1126 c34211    jp      1142h
1129 00        nop     
112a 41        ld      b,c
112b 4c        ld      c,h
112c 4c        ld      c,h
112d 2054      jr      nz,1183h
112f 45        ld      b,l
1130 53        ld      d,e
1131 54        ld      d,h
1132 2052      jr      nz,1186h
1134 45        ld      b,l
1135 53        ld      d,e
1136 55        ld      d,l
1137 4c        ld      c,h
1138 54        ld      d,h
1139 53        ld      d,e
113a 2050      jr      nz,118ch
113c 52        ld      d,d
113d 45        ld      b,l
113e 53        ld      d,e
113f 45        ld      b,l
1140 4e        ld      c,(hl)
1141 54        ld      d,h
1142 00        nop     
1143 214c11    ld      hl,114ch
1146 cdd624    call    24d6h
1149 c35d11    jp      115dh
114c 1c        inc     e
114d 43        ld      b,e
114e 48        ld      c,b
114f 45        ld      b,l
1150 43        ld      b,e
1151 4b        ld      c,e
1152 2043      jr      nz,1197h
1154 4f        ld      c,a
1155 4d        ld      c,l
1156 50        ld      d,b
1157 41        ld      b,c
1158 52        ld      d,d
1159 41        ld      b,c
115a 54        ld      d,h
115b 4f        ld      c,a
115c 52        ld      d,d
115d 00        nop     
115e c9        ret     

115f 216811    ld      hl,1168h
1162 cdd124    call    24d1h
1165 c38111    jp      1181h
1168 00        nop     
1169 50        ld      d,b
116a 41        ld      b,c
116b 52        ld      d,d
116c 54        ld      d,h
116d 2054      jr      nz,11c3h
116f 45        ld      b,l
1170 53        ld      d,e
1171 54        ld      d,h
1172 53        ld      d,e
1173 2047      jr      nz,11bch
1175 4f        ld      c,a
1176 4f        ld      c,a
1177 44        ld      b,h
1178 2041      jr      nz,11bbh
117a 4e        ld      c,(hl)
117b 44        ld      b,h
117c 2048      jr      nz,11c6h
117e 49        ld      c,c
117f 47        ld      b,a
1180 48        ld      c,b
1181 00        nop     
1182 218b11    ld      hl,118bh
1185 cdd624    call    24d6h
1188 c39c11    jp      119ch
118b 1c        inc     e
118c 43        ld      b,e
118d 48        ld      c,b
118e 45        ld      b,l
118f 43        ld      b,e
1190 4b        ld      c,e
1191 2043      jr      nz,11d6h
1193 4f        ld      c,a
1194 4d        ld      c,l
1195 50        ld      d,b
1196 41        ld      b,c
1197 52        ld      d,d
1198 41        ld      b,c
1199 54        ld      d,h
119a 4f        ld      c,a
119b 52        ld      d,d
119c 00        nop     
119d c9        ret     

119e 21a711    ld      hl,11a7h
11a1 cdd124    call    24d1h
11a4 c3c011    jp      11c0h
11a7 00        nop     
11a8 50        ld      d,b
11a9 41        ld      b,c
11aa 52        ld      d,d
11ab 54        ld      d,h
11ac 2054      jr      nz,1202h
11ae 45        ld      b,l
11af 53        ld      d,e
11b0 54        ld      d,h
11b1 45        ld      b,l
11b2 44        ld      b,h
11b3 2047      jr      nz,11fch
11b5 4f        ld      c,a
11b6 4f        ld      c,a
11b7 44        ld      b,h
11b8 2041      jr      nz,11fbh
11ba 4e        ld      c,(hl)
11bb 44        ld      b,h
11bc 204c      jr      nz,120ah
11be 4f        ld      c,a
11bf 57        ld      d,a
11c0 00        nop     
11c1 21ca11    ld      hl,11cah
11c4 cdd624    call    24d6h
11c7 c3db11    jp      11dbh
11ca 1c        inc     e
11cb 43        ld      b,e
11cc 48        ld      c,b
11cd 45        ld      b,l
11ce 43        ld      b,e
11cf 4b        ld      c,e
11d0 2043      jr      nz,1215h
11d2 4f        ld      c,a
11d3 4d        ld      c,l
11d4 50        ld      d,b
11d5 41        ld      b,c
11d6 52        ld      d,d
11d7 41        ld      b,c
11d8 54        ld      d,h
11d9 4f        ld      c,a
11da 52        ld      d,d
11db 00        nop     
11dc c9        ret     

11dd 3e18      ld      a,18h
11df d3f5      out     (0f5h),a
11e1 3e14      ld      a,14h
11e3 d3f5      out     (0f5h),a
11e5 3e07      ld      a,07h
11e7 d3f5      out     (0f5h),a
11e9 3e13      ld      a,13h
11eb d3f5      out     (0f5h),a
11ed 3ec3      ld      a,0c3h
11ef d3f5      out     (0f5h),a
11f1 3e15      ld      a,15h
11f3 d3f5      out     (0f5h),a
11f5 3e6a      ld      a,6ah
11f7 d3f5      out     (0f5h),a
11f9 3e11      ld      a,11h
11fb d3f5      out     (0f5h),a
11fd 3e00      ld      a,00h
11ff d3f5      out     (0f5h),a
1201 c9        ret     

1202 3e0c      ld      a,0ch
1204 d3f4      out     (0f4h),a
1206 3e00      ld      a,00h
1208 3208a1    ld      (0a108h),a
120b 3250a1    ld      (0a150h),a
120e c9        ret     

120f dbf5      in      a,(0f5h)
1211 cb57      bit     2,a
1213 c22c12    jp      nz,122ch
1216 110f12    ld      de,120fh
1219 ed5330a1  ld      (0a130h),de
121d 3a08a1    ld      a,(0a108h)
1220 cbcf      set     1,a
1222 3208a1    ld      (0a108h),a
1225 50        ld      d,b
1226 59        ld      e,c
1227 ed533ca1  ld      (0a13ch),de
122b c9        ret     

122c 3a08a1    ld      a,(0a108h)
122f cb8f      res     1,a
1231 3208a1    ld      (0a108h),a
1234 2a34a1    ld      hl,(0a134h)
1237 e9        jp      (hl)
1238 3e0c      ld      a,0ch
123a d3f4      out     (0f4h),a
123c 114612    ld      de,1246h
123f ed5334a1  ld      (0a134h),de
1243 c30f12    jp      120fh
1246 016221    ld      bc,2162h
1249 3e2e      ld      a,2eh
124b 3238a1    ld      (0a138h),a
124e 0a        ld      a,(bc)
124f d3f4      out     (0f4h),a
1251 115b12    ld      de,125bh
1254 ed5334a1  ld      (0a134h),de
1258 c30f12    jp      120fh
125b 03        inc     bc
125c 3a38a1    ld      a,(0a138h)
125f 3d        dec     a
1260 3238a1    ld      (0a138h),a
1263 fe00      cp      00h
1265 c24e12    jp      nz,124eh
1268 117212    ld      de,1272h
126b ed5334a1  ld      (0a134h),de
126f c35814    jp      1458h
1272 dbf4      in      a,(0f4h)
1274 fe18      cp      18h
1276 c27c12    jp      nz,127ch
1279 c30212    jp      1202h
127c 3e0c      ld      a,0ch
127e d3f4      out     (0f4h),a
1280 118a12    ld      de,128ah
1283 ed5334a1  ld      (0a134h),de
1287 c30f12    jp      120fh
128a 019021    ld      bc,2190h
128d 3e2c      ld      a,2ch
128f 3238a1    ld      (0a138h),a
1292 0a        ld      a,(bc)
1293 d3f4      out     (0f4h),a
1295 119f12    ld      de,129fh
1298 ed5334a1  ld      (0a134h),de
129c c30f12    jp      120fh
129f 03        inc     bc
12a0 3a38a1    ld      a,(0a138h)
12a3 3d        dec     a
12a4 3238a1    ld      (0a138h),a
12a7 fe00      cp      00h
12a9 c29212    jp      nz,1292h
12ac 11b612    ld      de,12b6h
12af ed5334a1  ld      (0a134h),de
12b3 c35814    jp      1458h
12b6 dbf4      in      a,(0f4h)
12b8 fe18      cp      18h
12ba c2c012    jp      nz,12c0h
12bd c30212    jp      1202h
12c0 3e0c      ld      a,0ch
12c2 d3f4      out     (0f4h),a
12c4 11ce12    ld      de,12ceh
12c7 ed5334a1  ld      (0a134h),de
12cb c30f12    jp      120fh
12ce 01bc21    ld      bc,21bch
12d1 3e2f      ld      a,2fh
12d3 3238a1    ld      (0a138h),a
12d6 0a        ld      a,(bc)
12d7 d3f4      out     (0f4h),a
12d9 11e312    ld      de,12e3h
12dc ed5334a1  ld      (0a134h),de
12e0 c30f12    jp      120fh
12e3 03        inc     bc
12e4 3a38a1    ld      a,(0a138h)
12e7 3d        dec     a
12e8 3238a1    ld      (0a138h),a
12eb fe00      cp      00h
12ed c2d612    jp      nz,12d6h
12f0 11fa12    ld      de,12fah
12f3 ed5334a1  ld      (0a134h),de
12f7 c35814    jp      1458h
12fa dbf4      in      a,(0f4h)
12fc fe18      cp      18h
12fe c20413    jp      nz,1304h
1301 c30212    jp      1202h
1304 3e0c      ld      a,0ch
1306 d3f4      out     (0f4h),a
1308 111213    ld      de,1312h
130b ed5334a1  ld      (0a134h),de
130f c30f12    jp      120fh
1312 011a22    ld      bc,221ah
1315 3e2f      ld      a,2fh
1317 3238a1    ld      (0a138h),a
131a 0a        ld      a,(bc)
131b d3f4      out     (0f4h),a
131d 112713    ld      de,1327h
1320 ed5334a1  ld      (0a134h),de
1324 c30f12    jp      120fh
1327 03        inc     bc
1328 3a38a1    ld      a,(0a138h)
132b 3d        dec     a
132c 3238a1    ld      (0a138h),a
132f fe00      cp      00h
1331 c21a13    jp      nz,131ah
1334 113e13    ld      de,133eh
1337 ed5334a1  ld      (0a134h),de
133b c35814    jp      1458h
133e dbf4      in      a,(0f4h)
1340 fe18      cp      18h
1342 c24813    jp      nz,1348h
1345 c30212    jp      1202h
1348 3e0c      ld      a,0ch
134a d3f4      out     (0f4h),a
134c 115613    ld      de,1356h
134f ed5334a1  ld      (0a134h),de
1353 c30f12    jp      120fh
1356 01eb21    ld      bc,21ebh
1359 3e2f      ld      a,2fh
135b 3238a1    ld      (0a138h),a
135e 0a        ld      a,(bc)
135f d3f4      out     (0f4h),a
1361 116b13    ld      de,136bh
1364 ed5334a1  ld      (0a134h),de
1368 c30f12    jp      120fh
136b 03        inc     bc
136c 3a38a1    ld      a,(0a138h)
136f 3d        dec     a
1370 3238a1    ld      (0a138h),a
1373 fe00      cp      00h
1375 c25e13    jp      nz,135eh
1378 118213    ld      de,1382h
137b ed5334a1  ld      (0a134h),de
137f c35814    jp      1458h
1382 dbf4      in      a,(0f4h)
1384 fe18      cp      18h
1386 c28c13    jp      nz,138ch
1389 c30212    jp      1202h
138c 3e0c      ld      a,0ch
138e d3f4      out     (0f4h),a
1390 119a13    ld      de,139ah
1393 ed5334a1  ld      (0a134h),de
1397 c30f12    jp      120fh
139a 014922    ld      bc,2249h
139d 3e29      ld      a,29h
139f 3238a1    ld      (0a138h),a
13a2 0a        ld      a,(bc)
13a3 d3f4      out     (0f4h),a
13a5 11af13    ld      de,13afh
13a8 ed5334a1  ld      (0a134h),de
13ac c30f12    jp      120fh
13af 03        inc     bc
13b0 3a38a1    ld      a,(0a138h)
13b3 3d        dec     a
13b4 3238a1    ld      (0a138h),a
13b7 fe00      cp      00h
13b9 c2a213    jp      nz,13a2h
13bc 11c613    ld      de,13c6h
13bf ed5334a1  ld      (0a134h),de
13c3 c35814    jp      1458h
13c6 dbf4      in      a,(0f4h)
13c8 fe18      cp      18h
13ca c2d013    jp      nz,13d0h
13cd c30212    jp      1202h
13d0 3e0c      ld      a,0ch
13d2 d3f4      out     (0f4h),a
13d4 11de13    ld      de,13deh
13d7 ed5334a1  ld      (0a134h),de
13db c30f12    jp      120fh
13de 017222    ld      bc,2272h
13e1 3e2f      ld      a,2fh
13e3 3238a1    ld      (0a138h),a
13e6 0a        ld      a,(bc)
13e7 d3f4      out     (0f4h),a
13e9 11f313    ld      de,13f3h
13ec ed5334a1  ld      (0a134h),de
13f0 c30f12    jp      120fh
13f3 03        inc     bc
13f4 3a38a1    ld      a,(0a138h)
13f7 3d        dec     a
13f8 3238a1    ld      (0a138h),a
13fb fe00      cp      00h
13fd c2e613    jp      nz,13e6h
1400 110a14    ld      de,140ah
1403 ed5334a1  ld      (0a134h),de
1407 c35814    jp      1458h
140a dbf4      in      a,(0f4h)
140c fe18      cp      18h
140e c21414    jp      nz,1414h
1411 c30212    jp      1202h
1414 3e0c      ld      a,0ch
1416 d3f4      out     (0f4h),a
1418 112214    ld      de,1422h
141b ed5334a1  ld      (0a134h),de
141f c30f12    jp      120fh
1422 01a122    ld      bc,22a1h
1425 3e2f      ld      a,2fh
1427 3238a1    ld      (0a138h),a
142a 0a        ld      a,(bc)
142b d3f4      out     (0f4h),a
142d 113714    ld      de,1437h
1430 ed5334a1  ld      (0a134h),de
1434 c30f12    jp      120fh
1437 03        inc     bc
1438 3a38a1    ld      a,(0a138h)
143b 3d        dec     a
143c 3238a1    ld      (0a138h),a
143f fe00      cp      00h
1441 c22a14    jp      nz,142ah
1444 114e14    ld      de,144eh
1447 ed5334a1  ld      (0a134h),de
144b c35814    jp      1458h
144e 110212    ld      de,1202h
1451 ed5334a1  ld      (0a134h),de
1455 c30f12    jp      120fh
1458 dbf5      in      a,(0f5h)
145a cb47      bit     0,a
145c c27514    jp      nz,1475h
145f 115814    ld      de,1458h
1462 ed532ca1  ld      (0a12ch),de
1466 3a08a1    ld      a,(0a108h)
1469 cbc7      set     0,a
146b 3208a1    ld      (0a108h),a
146e 50        ld      d,b
146f 59        ld      e,c
1470 ed533ca1  ld      (0a13ch),de
1474 c9        ret     

1475 3a08a1    ld      a,(0a108h)
1478 cb87      res     0,a
147a 3208a1    ld      (0a108h),a
147d 2a34a1    ld      hl,(0a134h)
1480 e9        jp      (hl)
1481 3e0c      ld      a,0ch
1483 d3f4      out     (0f4h),a
1485 118f14    ld      de,148fh
1488 ed5334a1  ld      (0a134h),de
148c c30f12    jp      120fh
148f 01d022    ld      bc,22d0h
1492 3e17      ld      a,17h
1494 3238a1    ld      (0a138h),a
1497 0a        ld      a,(bc)
1498 d3f4      out     (0f4h),a
149a 11a414    ld      de,14a4h
149d ed5334a1  ld      (0a134h),de
14a1 c30f12    jp      120fh
14a4 03        inc     bc
14a5 3a38a1    ld      a,(0a138h)
14a8 3d        dec     a
14a9 3238a1    ld      (0a138h),a
14ac fe00      cp      00h
14ae c29714    jp      nz,1497h
14b1 3e1b      ld      a,1bh
14b3 d3f4      out     (0f4h),a
14b5 11bf14    ld      de,14bfh
14b8 ed5334a1  ld      (0a134h),de
14bc c30f12    jp      120fh
14bf 3e47      ld      a,47h
14c1 d3f4      out     (0f4h),a
14c3 11cd14    ld      de,14cdh
14c6 ed5334a1  ld      (0a134h),de
14ca c30f12    jp      120fh
14cd 3e20      ld      a,20h
14cf d3f4      out     (0f4h),a
14d1 11db14    ld      de,14dbh
14d4 ed5334a1  ld      (0a134h),de
14d8 c30f12    jp      120fh
14db 3e32      ld      a,32h
14dd d3f4      out     (0f4h),a
14df 11e914    ld      de,14e9h
14e2 ed5334a1  ld      (0a134h),de
14e6 c30f12    jp      120fh
14e9 21f214    ld      hl,14f2h
14ec 2234a1    ld      (0a134h),hl
14ef c35814    jp      1458h
14f2 dbf4      in      a,(0f4h)
14f4 fe18      cp      18h
14f6 ca0212    jp      z,1202h
14f9 d3f4      out     (0f4h),a
14fb cdf116    call    16f1h
14fe cd8623    call    2386h
1501 57        ld      d,a
1502 210f15    ld      hl,150fh
1505 2234a1    ld      (0a134h),hl
1508 ed530ca1  ld      (0a10ch),de
150c c35814    jp      1458h
150f ed5b0ca1  ld      de,(0a10ch)
1513 dbf4      in      a,(0f4h)
1515 fe18      cp      18h
1517 ca0212    jp      z,1202h
151a fe7f      cp      7fh
151c c23515    jp      nz,1535h
151f d3f4      out     (0f4h),a
1521 212e15    ld      hl,152eh
1524 2234a1    ld      (0a134h),hl
1527 ed530ca1  ld      (0a10ch),de
152b c30f12    jp      120fh
152e ed5b0ca1  ld      de,(0a10ch)
1532 c3e914    jp      14e9h
1535 ed5310a1  ld      (0a110h),de
1539 d3f4      out     (0f4h),a
153b cdf116    call    16f1h
153e aa        xor     d
153f 57        ld      d,a
1540 3a08a1    ld      a,(0a108h)
1543 cb77      bit     6,a
1545 c2821a    jp      nz,1a82h
1548 3a08a1    ld      a,(0a108h)
154b cb6f      bit     5,a
154d c2c31c    jp      nz,1cc3h
1550 3a50a1    ld      a,(0a150h)
1553 cb7f      bit     7,a
1555 c2731f    jp      nz,1f73h
1558 216515    ld      hl,1565h
155b 2234a1    ld      (0a134h),hl
155e ed530ca1  ld      (0a10ch),de
1562 c35814    jp      1458h
1565 ed5b0ca1  ld      de,(0a10ch)
1569 dbf4      in      a,(0f4h)
156b fe18      cp      18h
156d ca0212    jp      z,1202h
1570 fe7f      cp      7fh
1572 c28715    jp      nz,1587h
1575 d3f4      out     (0f4h),a
1577 218015    ld      hl,1580h
157a 2234a1    ld      (0a134h),hl
157d c30f12    jp      120fh
1580 ed5b10a1  ld      de,(0a110h)
1584 c30215    jp      1502h
1587 ed5314a1  ld      (0a114h),de
158b d3f4      out     (0f4h),a
158d cdf116    call    16f1h
1590 cd8623    call    2386h
1593 5f        ld      e,a
1594 21a115    ld      hl,15a1h
1597 2234a1    ld      (0a134h),hl
159a ed530ca1  ld      (0a10ch),de
159e c35814    jp      1458h
15a1 ed5b0ca1  ld      de,(0a10ch)
15a5 dbf4      in      a,(0f4h)
15a7 fe18      cp      18h
15a9 ca0212    jp      z,1202h
15ac fe7f      cp      7fh
15ae c2c315    jp      nz,15c3h
15b1 d3f4      out     (0f4h),a
15b3 21bc15    ld      hl,15bch
15b6 2234a1    ld      (0a134h),hl
15b9 c30f12    jp      120fh
15bc ed5b14a1  ld      de,(0a114h)
15c0 c35815    jp      1558h
15c3 d3f4      out     (0f4h),a
15c5 cdf116    call    16f1h
15c8 ab        xor     e
15c9 5f        ld      e,a
15ca ed5318a1  ld      (0a118h),de
15ce 1a        ld      a,(de)
15cf 3204a1    ld      (0a104h),a
15d2 11dc15    ld      de,15dch
15d5 ed5334a1  ld      (0a134h),de
15d9 c30f12    jp      120fh
15dc ed5b0ca1  ld      de,(0a10ch)
15e0 3a08a1    ld      a,(0a108h)
15e3 cb7f      bit     7,a
15e5 c27217    jp      nz,1772h
15e8 3e1b      ld      a,1bh
15ea d3f4      out     (0f4h),a
15ec 11f615    ld      de,15f6h
15ef ed5334a1  ld      (0a134h),de
15f3 c30f12    jp      120fh
15f6 3e47      ld      a,47h
15f8 d3f4      out     (0f4h),a
15fa 110416    ld      de,1604h
15fd ed5334a1  ld      (0a134h),de
1601 c30f12    jp      120fh
1604 3e21      ld      a,21h
1606 d3f4      out     (0f4h),a
1608 111216    ld      de,1612h
160b ed5334a1  ld      (0a134h),de
160f c30f12    jp      120fh
1612 3e20      ld      a,20h
1614 d3f4      out     (0f4h),a
1616 112016    ld      de,1620h
1619 ed5334a1  ld      (0a134h),de
161d c30f12    jp      120fh
1620 01e722    ld      bc,22e7h
1623 3e0d      ld      a,0dh
1625 3238a1    ld      (0a138h),a
1628 0a        ld      a,(bc)
1629 d3f4      out     (0f4h),a
162b 113516    ld      de,1635h
162e ed5334a1  ld      (0a134h),de
1632 c30f12    jp      120fh
1635 03        inc     bc
1636 3a38a1    ld      a,(0a138h)
1639 3d        dec     a
163a 3238a1    ld      (0a138h),a
163d fe00      cp      00h
163f c22816    jp      nz,1628h
1642 3a04a1    ld      a,(0a104h)
1645 47        ld      b,a
1646 e680      and     80h
1648 ca5416    jp      z,1654h
164b 78        ld      a,b
164c e660      and     60h
164e ca5416    jp      z,1654h
1651 c36b16    jp      166bh
1654 78        ld      a,b
1655 e6f0      and     0f0h
1657 cd8123    call    2381h
165a c630      add     a,30h
165c d3f4      out     (0f4h),a
165e 116816    ld      de,1668h
1661 ed5334a1  ld      (0a134h),de
1665 c30f12    jp      120fh
1668 c38016    jp      1680h
166b 78        ld      a,b
166c e6f0      and     0f0h
166e cd8123    call    2381h
1671 c637      add     a,37h
1673 d3f4      out     (0f4h),a
1675 117f16    ld      de,167fh
1678 ed5334a1  ld      (0a134h),de
167c c30f12    jp      120fh
167f 00        nop     
1680 78        ld      a,b
1681 e60f      and     0fh
1683 cd8623    call    2386h
1686 47        ld      b,a
1687 e680      and     80h
1689 ca9516    jp      z,1695h
168c 78        ld      a,b
168d e660      and     60h
168f ca9516    jp      z,1695h
1692 c3aa16    jp      16aah
1695 78        ld      a,b
1696 cd8123    call    2381h
1699 c630      add     a,30h
169b d3f4      out     (0f4h),a
169d 11a716    ld      de,16a7h
16a0 ed5334a1  ld      (0a134h),de
16a4 c30f12    jp      120fh
16a7 c3bd16    jp      16bdh
16aa 78        ld      a,b
16ab cd8123    call    2381h
16ae c637      add     a,37h
16b0 d3f4      out     (0f4h),a
16b2 11bc16    ld      de,16bch
16b5 ed5334a1  ld      (0a134h),de
16b9 c30f12    jp      120fh
16bc 00        nop     
16bd 3a08a1    ld      a,(0a108h)
16c0 cb7f      bit     7,a
16c2 c2cf17    jp      nz,17cfh
16c5 3a08a1    ld      a,(0a108h)
16c8 cb77      bit     6,a
16ca c2bf1a    jp      nz,1abfh
16cd 3a08a1    ld      a,(0a108h)
16d0 cb6f      bit     5,a
16d2 c2cf17    jp      nz,17cfh
16d5 21e216    ld      hl,16e2h
16d8 2234a1    ld      (0a134h),hl
16db 3e48      ld      a,48h
16dd d3f4      out     (0f4h),a
16df c35814    jp      1458h
16e2 dbf4      in      a,(0f4h)
16e4 fe68      cp      68h
16e6 ca751d    jp      z,1d75h
16e9 fe67      cp      67h
16eb ca7f1d    jp      z,1d7fh
16ee c30212    jp      1202h
16f1 47        ld      b,a
16f2 e640      and     40h
16f4 cafb16    jp      z,16fbh
16f7 78        ld      a,b
16f8 d637      sub     37h
16fa c9        ret     

16fb 78        ld      a,b
16fc d630      sub     30h
16fe c9        ret     

16ff 3e0c      ld      a,0ch
1701 d3f4      out     (0f4h),a
1703 110d17    ld      de,170dh
1706 ed5334a1  ld      (0a134h),de
170a c30f12    jp      120fh
170d 01f422    ld      bc,22f4h
1710 3e17      ld      a,17h
1712 3238a1    ld      (0a138h),a
1715 0a        ld      a,(bc)
1716 d3f4      out     (0f4h),a
1718 112217    ld      de,1722h
171b ed5334a1  ld      (0a134h),de
171f c30f12    jp      120fh
1722 03        inc     bc
1723 3a38a1    ld      a,(0a138h)
1726 3d        dec     a
1727 3238a1    ld      (0a138h),a
172a fe00      cp      00h
172c c21517    jp      nz,1715h
172f 3e1b      ld      a,1bh
1731 d3f4      out     (0f4h),a
1733 113d17    ld      de,173dh
1736 ed5334a1  ld      (0a134h),de
173a c30f12    jp      120fh
173d 3e47      ld      a,47h
173f d3f4      out     (0f4h),a
1741 114b17    ld      de,174bh
1744 ed5334a1  ld      (0a134h),de
1748 c30f12    jp      120fh
174b 3e20      ld      a,20h
174d d3f4      out     (0f4h),a
174f 115917    ld      de,1759h
1752 ed5334a1  ld      (0a134h),de
1756 c30f12    jp      120fh
1759 3e32      ld      a,32h
175b d3f4      out     (0f4h),a
175d 116717    ld      de,1767h
1760 ed5334a1  ld      (0a134h),de
1764 c30f12    jp      120fh
1767 3a08a1    ld      a,(0a108h)
176a cbff      set     7,a
176c 3208a1    ld      (0a108h),a
176f c3e914    jp      14e9h
1772 3e1b      ld      a,1bh
1774 d3f4      out     (0f4h),a
1776 118017    ld      de,1780h
1779 ed5334a1  ld      (0a134h),de
177d c30f12    jp      120fh
1780 3e47      ld      a,47h
1782 d3f4      out     (0f4h),a
1784 118e17    ld      de,178eh
1787 ed5334a1  ld      (0a134h),de
178b c30f12    jp      120fh
178e 3e21      ld      a,21h
1790 d3f4      out     (0f4h),a
1792 119c17    ld      de,179ch
1795 ed5334a1  ld      (0a134h),de
1799 c30f12    jp      120fh
179c 3e20      ld      a,20h
179e d3f4      out     (0f4h),a
17a0 11aa17    ld      de,17aah
17a3 ed5334a1  ld      (0a134h),de
17a7 c30f12    jp      120fh
17aa 010b23    ld      bc,230bh
17ad 3e0a      ld      a,0ah
17af 3238a1    ld      (0a138h),a
17b2 0a        ld      a,(bc)
17b3 d3f4      out     (0f4h),a
17b5 11bf17    ld      de,17bfh
17b8 ed5334a1  ld      (0a134h),de
17bc c30f12    jp      120fh
17bf 03        inc     bc
17c0 3a38a1    ld      a,(0a138h)
17c3 3d        dec     a
17c4 3238a1    ld      (0a138h),a
17c7 fe00      cp      00h
17c9 c2b217    jp      nz,17b2h
17cc c34216    jp      1642h
17cf 011523    ld      bc,2315h
17d2 3e0a      ld      a,0ah
17d4 3238a1    ld      (0a138h),a
17d7 0a        ld      a,(bc)
17d8 d3f4      out     (0f4h),a
17da 11e417    ld      de,17e4h
17dd ed5334a1  ld      (0a134h),de
17e1 c30f12    jp      120fh
17e4 03        inc     bc
17e5 3a38a1    ld      a,(0a138h)
17e8 3d        dec     a
17e9 3238a1    ld      (0a138h),a
17ec fe00      cp      00h
17ee c2d717    jp      nz,17d7h
17f1 3e1b      ld      a,1bh
17f3 d3f4      out     (0f4h),a
17f5 11ff17    ld      de,17ffh
17f8 ed5334a1  ld      (0a134h),de
17fc c30f12    jp      120fh
17ff 3e47      ld      a,47h
1801 d3f4      out     (0f4h),a
1803 110d18    ld      de,180dh
1806 ed5334a1  ld      (0a134h),de
180a c30f12    jp      120fh
180d 3e21      ld      a,21h
180f d3f4      out     (0f4h),a
1811 111b18    ld      de,181bh
1814 ed5334a1  ld      (0a134h),de
1818 c30f12    jp      120fh
181b 3e33      ld      a,33h
181d d3f4      out     (0f4h),a
181f 112918    ld      de,1829h
1822 ed5334a1  ld      (0a134h),de
1826 c30f12    jp      120fh
1829 113318    ld      de,1833h
182c ed5334a1  ld      (0a134h),de
1830 c35814    jp      1458h
1833 dbf4      in      a,(0f4h)
1835 fe18      cp      18h
1837 ca0212    jp      z,1202h
183a d3f4      out     (0f4h),a
183c cdf116    call    16f1h
183f cd8623    call    2386h
1842 57        ld      d,a
1843 215018    ld      hl,1850h
1846 2234a1    ld      (0a134h),hl
1849 ed530ca1  ld      (0a10ch),de
184d c35814    jp      1458h
1850 ed5b0ca1  ld      de,(0a10ch)
1854 dbf4      in      a,(0f4h)
1856 fe18      cp      18h
1858 ca0212    jp      z,1202h
185b fe7f      cp      7fh
185d c27618    jp      nz,1876h
1860 d3f4      out     (0f4h),a
1862 216f18    ld      hl,186fh
1865 2234a1    ld      (0a134h),hl
1868 ed530ca1  ld      (0a10ch),de
186c c30f12    jp      120fh
186f ed5b0ca1  ld      de,(0a10ch)
1873 c32918    jp      1829h
1876 d3f4      out     (0f4h),a
1878 cdf116    call    16f1h
187b aa        xor     d
187c 57        ld      d,a
187d 3a08a1    ld      a,(0a108h)
1880 cb6f      bit     5,a
1882 c22d1d    jp      nz,1d2dh
1885 2a18a1    ld      hl,(0a118h)
1888 72        ld      (hl),d
1889 3e1b      ld      a,1bh
188b d3f4      out     (0f4h),a
188d 119718    ld      de,1897h
1890 ed5334a1  ld      (0a134h),de
1894 c30f12    jp      120fh
1897 3e47      ld      a,47h
1899 d3f4      out     (0f4h),a
189b 11a518    ld      de,18a5h
189e ed5334a1  ld      (0a134h),de
18a2 c30f12    jp      120fh
18a5 3e21      ld      a,21h
18a7 d3f4      out     (0f4h),a
18a9 11b318    ld      de,18b3h
18ac ed5334a1  ld      (0a134h),de
18b0 c30f12    jp      120fh
18b3 3e36      ld      a,36h
18b5 d3f4      out     (0f4h),a
18b7 11c118    ld      de,18c1h
18ba ed5334a1  ld      (0a134h),de
18be c30f12    jp      120fh
18c1 11cb18    ld      de,18cbh
18c4 ed5334a1  ld      (0a134h),de
18c8 c35814    jp      1458h
18cb dbf4      in      a,(0f4h)
18cd fe68      cp      68h
18cf ca751d    jp      z,1d75h
18d2 fe67      cp      67h
18d4 ca7f1d    jp      z,1d7fh
18d7 c30212    jp      1202h
18da 3a28a1    ld      a,(0a128h)
18dd fe00      cp      00h
18df ca5119    jp      z,1951h
18e2 fe01      cp      01h
18e4 ca6419    jp      z,1964h
18e7 fe03      cp      03h
18e9 ca7719    jp      z,1977h
18ec fe07      cp      07h
18ee ca8a19    jp      z,198ah
18f1 fe0f      cp      0fh
18f3 ca9d19    jp      z,199dh
18f6 fe1f      cp      1fh
18f8 cab019    jp      z,19b0h
18fb fe3f      cp      3fh
18fd cac319    jp      z,19c3h
1900 fe7f      cp      7fh
1902 cad619    jp      z,19d6h
1905 feff      cp      0ffh
1907 cae919    jp      z,19e9h
190a fef0      cp      0f0h
190c cafc19    jp      z,19fch
190f 110212    ld      de,1202h
1912 ed5334a1  ld      (0a134h),de
1916 3e00      ld      a,00h
1918 3228a1    ld      (0a128h),a
191b c35814    jp      1458h
191e ed5b1ca1  ld      de,(0a11ch)
1922 1a        ld      a,(de)
1923 d3f4      out     (0f4h),a
1925 13        inc     de
1926 3a38a1    ld      a,(0a138h)
1929 3d        dec     a
192a 3238a1    ld      (0a138h),a
192d fe00      cp      00h
192f cada18    jp      z,18dah
1932 ed531ca1  ld      (0a11ch),de
1936 cd3c19    call    193ch
1939 c31e19    jp      191eh
193c 21ff01    ld      hl,01ffh
193f 2b        dec     hl
1940 dde3      ex      (sp),ix
1942 dde3      ex      (sp),ix
1944 7c        ld      a,h
1945 fe00      cp      00h
1947 c23f19    jp      nz,193fh
194a 7d        ld      a,l
194b fe00      cp      00h
194d c23f19    jp      nz,193fh
1950 c9        ret     

1951 3e05      ld      a,05h
1953 3238a1    ld      (0a138h),a
1956 211621    ld      hl,2116h
1959 221ca1    ld      (0a11ch),hl
195c 3e01      ld      a,01h
195e 3228a1    ld      (0a128h),a
1961 c31e19    jp      191eh
1964 3e08      ld      a,08h
1966 3238a1    ld      (0a138h),a
1969 211b21    ld      hl,211bh
196c 221ca1    ld      (0a11ch),hl
196f 3e03      ld      a,03h
1971 3228a1    ld      (0a128h),a
1974 c31e19    jp      191eh
1977 3e08      ld      a,08h
1979 3238a1    ld      (0a138h),a
197c 212321    ld      hl,2123h
197f 221ca1    ld      (0a11ch),hl
1982 3e07      ld      a,07h
1984 3228a1    ld      (0a128h),a
1987 c31e19    jp      191eh
198a 3e08      ld      a,08h
198c 3238a1    ld      (0a138h),a
198f 212b21    ld      hl,212bh
1992 221ca1    ld      (0a11ch),hl
1995 3e0f      ld      a,0fh
1997 3228a1    ld      (0a128h),a
199a c31e19    jp      191eh
199d 3e08      ld      a,08h
199f 3238a1    ld      (0a138h),a
19a2 213321    ld      hl,2133h
19a5 221ca1    ld      (0a11ch),hl
19a8 3e1f      ld      a,1fh
19aa 3228a1    ld      (0a128h),a
19ad c31e19    jp      191eh
19b0 3e08      ld      a,08h
19b2 3238a1    ld      (0a138h),a
19b5 213b21    ld      hl,213bh
19b8 221ca1    ld      (0a11ch),hl
19bb 3e3f      ld      a,3fh
19bd 3228a1    ld      (0a128h),a
19c0 c31e19    jp      191eh
19c3 3e08      ld      a,08h
19c5 3238a1    ld      (0a138h),a
19c8 214321    ld      hl,2143h
19cb 221ca1    ld      (0a11ch),hl
19ce 3e7f      ld      a,7fh
19d0 3228a1    ld      (0a128h),a
19d3 c31e19    jp      191eh
19d6 3e08      ld      a,08h
19d8 3238a1    ld      (0a138h),a
19db 214b21    ld      hl,214bh
19de 221ca1    ld      (0a11ch),hl
19e1 3eff      ld      a,0ffh
19e3 3228a1    ld      (0a128h),a
19e6 c31e19    jp      191eh
19e9 3e08      ld      a,08h
19eb 3238a1    ld      (0a138h),a
19ee 215321    ld      hl,2153h
19f1 221ca1    ld      (0a11ch),hl
19f4 3ef0      ld      a,0f0h
19f6 3228a1    ld      (0a128h),a
19f9 c31e19    jp      191eh
19fc 3e07      ld      a,07h
19fe 3238a1    ld      (0a138h),a
1a01 215b21    ld      hl,215bh
1a04 221ca1    ld      (0a11ch),hl
1a07 3e55      ld      a,55h
1a09 3228a1    ld      (0a128h),a
1a0c c31e19    jp      191eh
1a0f 3e0c      ld      a,0ch
1a11 d3f4      out     (0f4h),a
1a13 111d1a    ld      de,1a1dh
1a16 ed5334a1  ld      (0a134h),de
1a1a c30f12    jp      120fh
1a1d 011f23    ld      bc,231fh
1a20 3e17      ld      a,17h
1a22 3238a1    ld      (0a138h),a
1a25 0a        ld      a,(bc)
1a26 d3f4      out     (0f4h),a
1a28 11321a    ld      de,1a32h
1a2b ed5334a1  ld      (0a134h),de
1a2f c30f12    jp      120fh
1a32 03        inc     bc
1a33 3a38a1    ld      a,(0a138h)
1a36 3d        dec     a
1a37 3238a1    ld      (0a138h),a
1a3a fe00      cp      00h
1a3c c2251a    jp      nz,1a25h
1a3f 3e1b      ld      a,1bh
1a41 d3f4      out     (0f4h),a
1a43 114d1a    ld      de,1a4dh
1a46 ed5334a1  ld      (0a134h),de
1a4a c30f12    jp      120fh
1a4d 3e47      ld      a,47h
1a4f d3f4      out     (0f4h),a
1a51 115b1a    ld      de,1a5bh
1a54 ed5334a1  ld      (0a134h),de
1a58 c30f12    jp      120fh
1a5b 3e20      ld      a,20h
1a5d d3f4      out     (0f4h),a
1a5f 11691a    ld      de,1a69h
1a62 ed5334a1  ld      (0a134h),de
1a66 c30f12    jp      120fh
1a69 3e34      ld      a,34h
1a6b d3f4      out     (0f4h),a
1a6d 11771a    ld      de,1a77h
1a70 ed5334a1  ld      (0a134h),de
1a74 c30f12    jp      120fh
1a77 3a08a1    ld      a,(0a108h)
1a7a cbf7      set     6,a
1a7c 3208a1    ld      (0a108h),a
1a7f c3e914    jp      14e9h
1a82 3a08a1    ld      a,(0a108h)
1a85 cbe7      set     4,a
1a87 3208a1    ld      (0a108h),a
1a8a 7a        ld      a,d
1a8b 3244a1    ld      (0a144h),a
1a8e 013623    ld      bc,2336h
1a91 3e08      ld      a,08h
1a93 3238a1    ld      (0a138h),a
1a96 0a        ld      a,(bc)
1a97 d3f4      out     (0f4h),a
1a99 11a31a    ld      de,1aa3h
1a9c ed5334a1  ld      (0a134h),de
1aa0 c30f12    jp      120fh
1aa3 03        inc     bc
1aa4 3a38a1    ld      a,(0a138h)
1aa7 3d        dec     a
1aa8 3238a1    ld      (0a138h),a
1aab fe00      cp      00h
1aad c2961a    jp      nz,1a96h
1ab0 3a44a1    ld      a,(0a144h)
1ab3 4f        ld      c,a
1ab4 ed78      in      a,(c)
1ab6 3204a1    ld      (0a104h),a
1ab9 3240a1    ld      (0a140h),a
1abc c34216    jp      1642h
1abf 013e23    ld      bc,233eh
1ac2 3e07      ld      a,07h
1ac4 3238a1    ld      (0a138h),a
1ac7 0a        ld      a,(bc)
1ac8 d3f4      out     (0f4h),a
1aca 11d41a    ld      de,1ad4h
1acd ed5334a1  ld      (0a134h),de
1ad1 c30f12    jp      120fh
1ad4 03        inc     bc
1ad5 3a38a1    ld      a,(0a138h)
1ad8 3d        dec     a
1ad9 3238a1    ld      (0a138h),a
1adc fe00      cp      00h
1ade c2c71a    jp      nz,1ac7h
1ae1 3a40a1    ld      a,(0a140h)
1ae4 cb7f      bit     7,a
1ae6 caef1a    jp      z,1aefh
1ae9 cd9023    call    2390h
1aec c3f21a    jp      1af2h
1aef cd8b23    call    238bh
1af2 11fc1a    ld      de,1afch
1af5 ed5334a1  ld      (0a134h),de
1af9 c30f12    jp      120fh
1afc 3a40a1    ld      a,(0a140h)
1aff cb77      bit     6,a
1b01 ca0a1b    jp      z,1b0ah
1b04 cd9023    call    2390h
1b07 c30d1b    jp      1b0dh
1b0a cd8b23    call    238bh
1b0d 11171b    ld      de,1b17h
1b10 ed5334a1  ld      (0a134h),de
1b14 c30f12    jp      120fh
1b17 3a40a1    ld      a,(0a140h)
1b1a cb6f      bit     5,a
1b1c ca251b    jp      z,1b25h
1b1f cd9023    call    2390h
1b22 c3281b    jp      1b28h
1b25 cd8b23    call    238bh
1b28 11321b    ld      de,1b32h
1b2b ed5334a1  ld      (0a134h),de
1b2f c30f12    jp      120fh
1b32 3a40a1    ld      a,(0a140h)
1b35 cb67      bit     4,a
1b37 ca401b    jp      z,1b40h
1b3a cd9023    call    2390h
1b3d c3431b    jp      1b43h
1b40 cd8b23    call    238bh
1b43 114d1b    ld      de,1b4dh
1b46 ed5334a1  ld      (0a134h),de
1b4a c30f12    jp      120fh
1b4d 3a40a1    ld      a,(0a140h)
1b50 cb5f      bit     3,a
1b52 ca5b1b    jp      z,1b5bh
1b55 cd9023    call    2390h
1b58 c35e1b    jp      1b5eh
1b5b cd8b23    call    238bh
1b5e 11681b    ld      de,1b68h
1b61 ed5334a1  ld      (0a134h),de
1b65 c30f12    jp      120fh
1b68 3a40a1    ld      a,(0a140h)
1b6b cb57      bit     2,a
1b6d ca761b    jp      z,1b76h
1b70 cd9023    call    2390h
1b73 c3791b    jp      1b79h
1b76 cd8b23    call    238bh
1b79 11831b    ld      de,1b83h
1b7c ed5334a1  ld      (0a134h),de
1b80 c30f12    jp      120fh
1b83 3a40a1    ld      a,(0a140h)
1b86 cb4f      bit     1,a
1b88 ca911b    jp      z,1b91h
1b8b cd9023    call    2390h
1b8e c3941b    jp      1b94h
1b91 cd8b23    call    238bh
1b94 119e1b    ld      de,1b9eh
1b97 ed5334a1  ld      (0a134h),de
1b9b c30f12    jp      120fh
1b9e 3a40a1    ld      a,(0a140h)
1ba1 cb47      bit     0,a
1ba3 caac1b    jp      z,1bach
1ba6 cd9023    call    2390h
1ba9 c3af1b    jp      1bafh
1bac cd8b23    call    238bh
1baf 11b91b    ld      de,1bb9h
1bb2 ed5334a1  ld      (0a134h),de
1bb6 c30f12    jp      120fh
1bb9 3a50a1    ld      a,(0a150h)
1bbc cb7f      bit     7,a
1bbe c2b51f    jp      nz,1fb5h
1bc1 11cb1b    ld      de,1bcbh
1bc4 ed5348a1  ld      (0a148h),de
1bc8 c3da1b    jp      1bdah
1bcb dbf4      in      a,(0f4h)
1bcd fe68      cp      68h
1bcf ca871e    jp      z,1e87h
1bd2 fe67      cp      67h
1bd4 ca991e    jp      z,1e99h
1bd7 c30212    jp      1202h
1bda dbf5      in      a,(0f5h)
1bdc cb47      bit     0,a
1bde c2051c    jp      nz,1c05h
1be1 11da1b    ld      de,1bdah
1be4 ed534ca1  ld      (0a14ch),de
1be8 3a08a1    ld      a,(0a108h)
1beb cbe7      set     4,a
1bed 3208a1    ld      (0a108h),a
1bf0 50        ld      d,b
1bf1 59        ld      e,c
1bf2 ed533ca1  ld      (0a13ch),de
1bf6 3a44a1    ld      a,(0a144h)
1bf9 4f        ld      c,a
1bfa ed78      in      a,(c)
1bfc 57        ld      d,a
1bfd 3a04a1    ld      a,(0a104h)
1c00 ba        cp      d
1c01 c2111c    jp      nz,1c11h
1c04 c9        ret     

1c05 3a08a1    ld      a,(0a108h)
1c08 cba7      res     4,a
1c0a 3208a1    ld      (0a108h),a
1c0d 2a48a1    ld      hl,(0a148h)
1c10 e9        jp      (hl)
1c11 7a        ld      a,d
1c12 3204a1    ld      (0a104h),a
1c15 3240a1    ld      (0a140h),a
1c18 3e1b      ld      a,1bh
1c1a d3f4      out     (0f4h),a
1c1c 11261c    ld      de,1c26h
1c1f ed5334a1  ld      (0a134h),de
1c23 c30f12    jp      120fh
1c26 3e47      ld      a,47h
1c28 d3f4      out     (0f4h),a
1c2a 11341c    ld      de,1c34h
1c2d ed5334a1  ld      (0a134h),de
1c31 c30f12    jp      120fh
1c34 3e21      ld      a,21h
1c36 d3f4      out     (0f4h),a
1c38 11421c    ld      de,1c42h
1c3b ed5334a1  ld      (0a134h),de
1c3f c30f12    jp      120fh
1c42 3e26      ld      a,26h
1c44 d3f4      out     (0f4h),a
1c46 114216    ld      de,1642h
1c49 ed5334a1  ld      (0a134h),de
1c4d c30f12    jp      120fh
1c50 3e0c      ld      a,0ch
1c52 d3f4      out     (0f4h),a
1c54 115e1c    ld      de,1c5eh
1c57 ed5334a1  ld      (0a134h),de
1c5b c30f12    jp      120fh
1c5e 014523    ld      bc,2345h
1c61 3e18      ld      a,18h
1c63 3238a1    ld      (0a138h),a
1c66 0a        ld      a,(bc)
1c67 d3f4      out     (0f4h),a
1c69 11731c    ld      de,1c73h
1c6c ed5334a1  ld      (0a134h),de
1c70 c30f12    jp      120fh
1c73 03        inc     bc
1c74 3a38a1    ld      a,(0a138h)
1c77 3d        dec     a
1c78 3238a1    ld      (0a138h),a
1c7b fe00      cp      00h
1c7d c2661c    jp      nz,1c66h
1c80 3e1b      ld      a,1bh
1c82 d3f4      out     (0f4h),a
1c84 118e1c    ld      de,1c8eh
1c87 ed5334a1  ld      (0a134h),de
1c8b c30f12    jp      120fh
1c8e 3e47      ld      a,47h
1c90 d3f4      out     (0f4h),a
1c92 119c1c    ld      de,1c9ch
1c95 ed5334a1  ld      (0a134h),de
1c99 c30f12    jp      120fh
1c9c 3e20      ld      a,20h
1c9e d3f4      out     (0f4h),a
1ca0 11aa1c    ld      de,1caah
1ca3 ed5334a1  ld      (0a134h),de
1ca7 c30f12    jp      120fh
1caa 3e34      ld      a,34h
1cac d3f4      out     (0f4h),a
1cae 11b81c    ld      de,1cb8h
1cb1 ed5334a1  ld      (0a134h),de
1cb5 c30f12    jp      120fh
1cb8 3a08a1    ld      a,(0a108h)
1cbb cbef      set     5,a
1cbd 3208a1    ld      (0a108h),a
1cc0 c3e914    jp      14e9h
1cc3 7a        ld      a,d
1cc4 3244a1    ld      (0a144h),a
1cc7 3e1b      ld      a,1bh
1cc9 d3f4      out     (0f4h),a
1ccb 11d51c    ld      de,1cd5h
1cce ed5334a1  ld      (0a134h),de
1cd2 c30f12    jp      120fh
1cd5 3e47      ld      a,47h
1cd7 d3f4      out     (0f4h),a
1cd9 11e31c    ld      de,1ce3h
1cdc ed5334a1  ld      (0a134h),de
1ce0 c30f12    jp      120fh
1ce3 3e21      ld      a,21h
1ce5 d3f4      out     (0f4h),a
1ce7 11f11c    ld      de,1cf1h
1cea ed5334a1  ld      (0a134h),de
1cee c30f12    jp      120fh
1cf1 3e20      ld      a,20h
1cf3 d3f4      out     (0f4h),a
1cf5 11ff1c    ld      de,1cffh
1cf8 ed5334a1  ld      (0a134h),de
1cfc c30f12    jp      120fh
1cff 010b23    ld      bc,230bh
1d02 3e0a      ld      a,0ah
1d04 3238a1    ld      (0a138h),a
1d07 0a        ld      a,(bc)
1d08 d3f4      out     (0f4h),a
1d0a 11141d    ld      de,1d14h
1d0d ed5334a1  ld      (0a134h),de
1d11 c30f12    jp      120fh
1d14 03        inc     bc
1d15 3a38a1    ld      a,(0a138h)
1d18 3d        dec     a
1d19 3238a1    ld      (0a138h),a
1d1c fe00      cp      00h
1d1e c2071d    jp      nz,1d07h
1d21 3a44a1    ld      a,(0a144h)
1d24 4f        ld      c,a
1d25 ed78      in      a,(c)
1d27 3204a1    ld      (0a104h),a
1d2a c34216    jp      1642h
1d2d 3a44a1    ld      a,(0a144h)
1d30 4f        ld      c,a
1d31 ed51      out     (c),d
1d33 3e1b      ld      a,1bh
1d35 d3f4      out     (0f4h),a
1d37 11411d    ld      de,1d41h
1d3a ed5334a1  ld      (0a134h),de
1d3e c30f12    jp      120fh
1d41 3e47      ld      a,47h
1d43 d3f4      out     (0f4h),a
1d45 114f1d    ld      de,1d4fh
1d48 ed5334a1  ld      (0a134h),de
1d4c c30f12    jp      120fh
1d4f 3e21      ld      a,21h
1d51 d3f4      out     (0f4h),a
1d53 115d1d    ld      de,1d5dh
1d56 ed5334a1  ld      (0a134h),de
1d5a c30f12    jp      120fh
1d5d 3e36      ld      a,36h
1d5f d3f4      out     (0f4h),a
1d61 116b1d    ld      de,1d6bh
1d64 ed5334a1  ld      (0a134h),de
1d68 c30f12    jp      120fh
1d6b 11cb1b    ld      de,1bcbh
1d6e ed5334a1  ld      (0a134h),de
1d72 c35814    jp      1458h
1d75 2a18a1    ld      hl,(0a118h)
1d78 23        inc     hl
1d79 2218a1    ld      (0a118h),hl
1d7c c3891d    jp      1d89h
1d7f 2a18a1    ld      hl,(0a118h)
1d82 2b        dec     hl
1d83 2218a1    ld      (0a118h),hl
1d86 c3891d    jp      1d89h
1d89 3e1b      ld      a,1bh
1d8b d3f4      out     (0f4h),a
1d8d 11971d    ld      de,1d97h
1d90 ed5334a1  ld      (0a134h),de
1d94 c30f12    jp      120fh
1d97 3e47      ld      a,47h
1d99 d3f4      out     (0f4h),a
1d9b 11a51d    ld      de,1da5h
1d9e ed5334a1  ld      (0a134h),de
1da2 c30f12    jp      120fh
1da5 3e20      ld      a,20h
1da7 d3f4      out     (0f4h),a
1da9 11b31d    ld      de,1db3h
1dac ed5334a1  ld      (0a134h),de
1db0 c30f12    jp      120fh
1db3 3e32      ld      a,32h
1db5 d3f4      out     (0f4h),a
1db7 11c11d    ld      de,1dc1h
1dba ed5334a1  ld      (0a134h),de
1dbe c30f12    jp      120fh
1dc1 2a18a1    ld      hl,(0a118h)
1dc4 7c        ld      a,h
1dc5 3220a1    ld      (0a120h),a
1dc8 7d        ld      a,l
1dc9 3224a1    ld      (0a124h),a
1dcc 3a08a1    ld      a,(0a108h)
1dcf cb57      bit     2,a
1dd1 c2da1d    jp      nz,1ddah
1dd4 3a20a1    ld      a,(0a120h)
1dd7 c3dd1d    jp      1dddh
1dda 3a24a1    ld      a,(0a124h)
1ddd 47        ld      b,a
1dde e680      and     80h
1de0 caec1d    jp      z,1dech
1de3 78        ld      a,b
1de4 e660      and     60h
1de6 caec1d    jp      z,1dech
1de9 c3031e    jp      1e03h
1dec 78        ld      a,b
1ded e6f0      and     0f0h
1def cd8123    call    2381h
1df2 c630      add     a,30h
1df4 d3f4      out     (0f4h),a
1df6 11001e    ld      de,1e00h
1df9 ed5334a1  ld      (0a134h),de
1dfd c30f12    jp      120fh
1e00 c3181e    jp      1e18h
1e03 78        ld      a,b
1e04 e6f0      and     0f0h
1e06 cd8123    call    2381h
1e09 c637      add     a,37h
1e0b d3f4      out     (0f4h),a
1e0d 11171e    ld      de,1e17h
1e10 ed5334a1  ld      (0a134h),de
1e14 c30f12    jp      120fh
1e17 00        nop     
1e18 78        ld      a,b
1e19 e60f      and     0fh
1e1b cd8623    call    2386h
1e1e 47        ld      b,a
1e1f e680      and     80h
1e21 ca2d1e    jp      z,1e2dh
1e24 78        ld      a,b
1e25 e660      and     60h
1e27 ca2d1e    jp      z,1e2dh
1e2a c3421e    jp      1e42h
1e2d 78        ld      a,b
1e2e cd8123    call    2381h
1e31 c630      add     a,30h
1e33 d3f4      out     (0f4h),a
1e35 113f1e    ld      de,1e3fh
1e38 ed5334a1  ld      (0a134h),de
1e3c c30f12    jp      120fh
1e3f c3551e    jp      1e55h
1e42 78        ld      a,b
1e43 cd8123    call    2381h
1e46 c637      add     a,37h
1e48 d3f4      out     (0f4h),a
1e4a 11541e    ld      de,1e54h
1e4d ed5334a1  ld      (0a134h),de
1e51 c30f12    jp      120fh
1e54 00        nop     
1e55 3a50a1    ld      a,(0a150h)
1e58 cb7f      bit     7,a
1e5a c20f21    jp      nz,210fh
1e5d 3a08a1    ld      a,(0a108h)
1e60 cb5f      bit     3,a
1e62 c2f11e    jp      nz,1ef1h
1e65 3208a1    ld      (0a108h),a
1e68 3a08a1    ld      a,(0a108h)
1e6b cb57      bit     2,a
1e6d c2781e    jp      nz,1e78h
1e70 cbd7      set     2,a
1e72 3208a1    ld      (0a108h),a
1e75 c3cc1d    jp      1dcch
1e78 3a08a1    ld      a,(0a108h)
1e7b cb97      res     2,a
1e7d 3208a1    ld      (0a108h),a
1e80 ed5b18a1  ld      de,(0a118h)
1e84 c3ce15    jp      15ceh
1e87 3a44a1    ld      a,(0a144h)
1e8a 3c        inc     a
1e8b 3244a1    ld      (0a144h),a
1e8e 3a50a1    ld      a,(0a150h)
1e91 cb7f      bit     7,a
1e93 caab1e    jp      z,1eabh
1e96 c3d120    jp      20d1h
1e99 3a44a1    ld      a,(0a144h)
1e9c 3d        dec     a
1e9d 3244a1    ld      (0a144h),a
1ea0 3a50a1    ld      a,(0a150h)
1ea3 cb7f      bit     7,a
1ea5 caab1e    jp      z,1eabh
1ea8 c3d120    jp      20d1h
1eab 3e1b      ld      a,1bh
1ead d3f4      out     (0f4h),a
1eaf 11b91e    ld      de,1eb9h
1eb2 ed5334a1  ld      (0a134h),de
1eb6 c30f12    jp      120fh
1eb9 3e47      ld      a,47h
1ebb d3f4      out     (0f4h),a
1ebd 11c71e    ld      de,1ec7h
1ec0 ed5334a1  ld      (0a134h),de
1ec4 c30f12    jp      120fh
1ec7 3e20      ld      a,20h
1ec9 d3f4      out     (0f4h),a
1ecb 11d51e    ld      de,1ed5h
1ece ed5334a1  ld      (0a134h),de
1ed2 c30f12    jp      120fh
1ed5 3e34      ld      a,34h
1ed7 d3f4      out     (0f4h),a
1ed9 11e31e    ld      de,1ee3h
1edc ed5334a1  ld      (0a134h),de
1ee0 c30f12    jp      120fh
1ee3 3a08a1    ld      a,(0a108h)
1ee6 cbdf      set     3,a
1ee8 3208a1    ld      (0a108h),a
1eeb 3a44a1    ld      a,(0a144h)
1eee c3dd1d    jp      1dddh
1ef1 3a44a1    ld      a,(0a144h)
1ef4 57        ld      d,a
1ef5 3a08a1    ld      a,(0a108h)
1ef8 cb6f      bit     5,a
1efa c2c31c    jp      nz,1cc3h
1efd c3821a    jp      1a82h
1f00 3e0c      ld      a,0ch
1f02 d3f4      out     (0f4h),a
1f04 110e1f    ld      de,1f0eh
1f07 ed5334a1  ld      (0a134h),de
1f0b c30f12    jp      120fh
1f0e 015d23    ld      bc,235dh
1f11 3e24      ld      a,24h
1f13 3238a1    ld      (0a138h),a
1f16 0a        ld      a,(bc)
1f17 d3f4      out     (0f4h),a
1f19 11231f    ld      de,1f23h
1f1c ed5334a1  ld      (0a134h),de
1f20 c30f12    jp      120fh
1f23 03        inc     bc
1f24 3a38a1    ld      a,(0a138h)
1f27 3d        dec     a
1f28 3238a1    ld      (0a138h),a
1f2b fe00      cp      00h
1f2d c2161f    jp      nz,1f16h
1f30 3e1b      ld      a,1bh
1f32 d3f4      out     (0f4h),a
1f34 113e1f    ld      de,1f3eh
1f37 ed5334a1  ld      (0a134h),de
1f3b c30f12    jp      120fh
1f3e 3e47      ld      a,47h
1f40 d3f4      out     (0f4h),a
1f42 114c1f    ld      de,1f4ch
1f45 ed5334a1  ld      (0a134h),de
1f49 c30f12    jp      120fh
1f4c 3e21      ld      a,21h
1f4e d3f4      out     (0f4h),a
1f50 115a1f    ld      de,1f5ah
1f53 ed5334a1  ld      (0a134h),de
1f57 c30f12    jp      120fh
1f5a 3e29      ld      a,29h
1f5c d3f4      out     (0f4h),a
1f5e 11681f    ld      de,1f68h
1f61 ed5334a1  ld      (0a134h),de
1f65 c30f12    jp      120fh
1f68 3a50a1    ld      a,(0a150h)
1f6b cbff      set     7,a
1f6d 3250a1    ld      (0a150h),a
1f70 c3e914    jp      14e9h
1f73 7a        ld      a,d
1f74 3244a1    ld      (0a144h),a
1f77 4f        ld      c,a
1f78 ed78      in      a,(c)
1f7a 3240a1    ld      (0a140h),a
1f7d 3e1b      ld      a,1bh
1f7f d3f4      out     (0f4h),a
1f81 118b1f    ld      de,1f8bh
1f84 ed5334a1  ld      (0a134h),de
1f88 c30f12    jp      120fh
1f8b 3e47      ld      a,47h
1f8d d3f4      out     (0f4h),a
1f8f 11991f    ld      de,1f99h
1f92 ed5334a1  ld      (0a134h),de
1f96 c30f12    jp      120fh
1f99 3e21      ld      a,21h
1f9b d3f4      out     (0f4h),a
1f9d 11a71f    ld      de,1fa7h
1fa0 ed5334a1  ld      (0a134h),de
1fa4 c30f12    jp      120fh
1fa7 3e2f      ld      a,2fh
1fa9 d3f4      out     (0f4h),a
1fab 11e11a    ld      de,1ae1h
1fae ed5334a1  ld      (0a134h),de
1fb2 c30f12    jp      120fh
1fb5 11bf1f    ld      de,1fbfh
1fb8 ed5334a1  ld      (0a134h),de
1fbc c35814    jp      1458h
1fbf dbf4      in      a,(0f4h)
1fc1 fe68      cp      68h
1fc3 ca871e    jp      z,1e87h
1fc6 fe67      cp      67h
1fc8 ca991e    jp      z,1e99h
1fcb fe37      cp      37h
1fcd caf61f    jp      z,1ff6h
1fd0 fe36      cp      36h
1fd2 ca0e20    jp      z,200eh
1fd5 fe35      cp      35h
1fd7 ca2620    jp      z,2026h
1fda fe34      cp      34h
1fdc ca3e20    jp      z,203eh
1fdf fe33      cp      33h
1fe1 ca5620    jp      z,2056h
1fe4 fe32      cp      32h
1fe6 ca6e20    jp      z,206eh
1fe9 fe31      cp      31h
1feb ca8620    jp      z,2086h
1fee fe30      cp      30h
1ff0 ca9e20    jp      z,209eh
1ff3 c30212    jp      1202h
1ff6 3a40a1    ld      a,(0a140h)
1ff9 cb7f      bit     7,a
1ffb c20620    jp      nz,2006h
1ffe cbff      set     7,a
2000 3240a1    ld      (0a140h),a
2003 c3b620    jp      20b6h
2006 cbbf      res     7,a
2008 3240a1    ld      (0a140h),a
200b c3b620    jp      20b6h
200e 3a40a1    ld      a,(0a140h)
2011 cb77      bit     6,a
2013 c21e20    jp      nz,201eh
2016 cbf7      set     6,a
2018 3240a1    ld      (0a140h),a
201b c3b620    jp      20b6h
201e cbb7      res     6,a
2020 3240a1    ld      (0a140h),a
2023 c3b620    jp      20b6h
2026 3a40a1    ld      a,(0a140h)
2029 cb6f      bit     5,a
202b c23620    jp      nz,2036h
202e cbef      set     5,a
2030 3240a1    ld      (0a140h),a
2033 c3b620    jp      20b6h
2036 cbaf      res     5,a
2038 3240a1    ld      (0a140h),a
203b c3b620    jp      20b6h
203e 3a40a1    ld      a,(0a140h)
2041 cb67      bit     4,a
2043 c24e20    jp      nz,204eh
2046 cbe7      set     4,a
2048 3240a1    ld      (0a140h),a
204b c3b620    jp      20b6h
204e cba7      res     4,a
2050 3240a1    ld      (0a140h),a
2053 c3b620    jp      20b6h
2056 3a40a1    ld      a,(0a140h)
2059 cb5f      bit     3,a
205b c26620    jp      nz,2066h
205e cbdf      set     3,a
2060 3240a1    ld      (0a140h),a
2063 c3b620    jp      20b6h
2066 cb9f      res     3,a
2068 3240a1    ld      (0a140h),a
206b c3b620    jp      20b6h
206e 3a40a1    ld      a,(0a140h)
2071 cb57      bit     2,a
2073 c27e20    jp      nz,207eh
2076 cbd7      set     2,a
2078 3240a1    ld      (0a140h),a
207b c3b620    jp      20b6h
207e cb97      res     2,a
2080 3240a1    ld      (0a140h),a
2083 c3b620    jp      20b6h
2086 3a40a1    ld      a,(0a140h)
2089 cb4f      bit     1,a
208b c29620    jp      nz,2096h
208e cbcf      set     1,a
2090 3240a1    ld      (0a140h),a
2093 c3b620    jp      20b6h
2096 cb8f      res     1,a
2098 3240a1    ld      (0a140h),a
209b c3b620    jp      20b6h
209e 3a40a1    ld      a,(0a140h)
20a1 cb47      bit     0,a
20a3 c2ae20    jp      nz,20aeh
20a6 cbc7      set     0,a
20a8 3240a1    ld      (0a140h),a
20ab c3b620    jp      20b6h
20ae cb87      res     0,a
20b0 3240a1    ld      (0a140h),a
20b3 c3b620    jp      20b6h
20b6 3a40a1    ld      a,(0a140h)
20b9 57        ld      d,a
20ba 3a44a1    ld      a,(0a144h)
20bd 4f        ld      c,a
20be ed51      out     (c),d
20c0 11ca20    ld      de,20cah
20c3 ed5334a1  ld      (0a134h),de
20c7 c30f12    jp      120fh
20ca 3a44a1    ld      a,(0a144h)
20cd 57        ld      d,a
20ce c3731f    jp      1f73h
20d1 3e1b      ld      a,1bh
20d3 d3f4      out     (0f4h),a
20d5 11df20    ld      de,20dfh
20d8 ed5334a1  ld      (0a134h),de
20dc c30f12    jp      120fh
20df 3e47      ld      a,47h
20e1 d3f4      out     (0f4h),a
20e3 11ed20    ld      de,20edh
20e6 ed5334a1  ld      (0a134h),de
20ea c30f12    jp      120fh
20ed 3e21      ld      a,21h
20ef d3f4      out     (0f4h),a
20f1 11fb20    ld      de,20fbh
20f4 ed5334a1  ld      (0a134h),de
20f8 c30f12    jp      120fh
20fb 3e29      ld      a,29h
20fd d3f4      out     (0f4h),a
20ff 110921    ld      de,2109h
2102 ed5334a1  ld      (0a134h),de
2106 c30f12    jp      120fh
2109 3a44a1    ld      a,(0a144h)
210c c3dd1d    jp      1dddh
210f 3a44a1    ld      a,(0a144h)
2112 57        ld      d,a
2113 c3731f    jp      1f73h
2116 0c        inc     c
2117 57        ld      d,a
2118 41        ld      b,c
2119 49        ld      c,c
211a 54        ld      d,h
211b 1b        dec     de
211c 57        ld      d,a
211d 313631    ld      sp,3136h
2120 3030      jr      nc,2152h
2122 2a1b57    ld      hl,(571bh)
2125 323632    ld      (3236h),a
2128 3030      jr      nc,215ah
212a 2a1b57    ld      hl,(571bh)
212d 33        inc     sp
212e 3633      ld      (hl),33h
2130 3030      jr      nc,2162h
2132 2a1b57    ld      hl,(571bh)
2135 34        inc     (hl)
2136 3634      ld      (hl),34h
2138 3030      jr      nc,216ah
213a 2a1b57    ld      hl,(571bh)
213d 35        dec     (hl)
213e 3635      ld      (hl),35h
2140 3030      jr      nc,2172h
2142 2a1b57    ld      hl,(571bh)
2145 3636      ld      (hl),36h
2147 3630      ld      (hl),30h
2149 302a      jr      nc,2175h
214b 1b        dec     de
214c 57        ld      d,a
214d 37        scf     
214e 3637      ld      (hl),37h
2150 3030      jr      nc,2182h
2152 2a1b57    ld      hl,(571bh)
2155 3836      jr      c,218dh
2157 3830      jr      c,2189h
2159 302a      jr      nc,2185h
215b 2052      jr      nz,21afh
215d 45        ld      b,l
215e 41        ld      b,c
215f 44        ld      b,h
2160 59        ld      e,c
2161 07        rlca    
2162 48        ld      c,b
2163 45        ld      b,l
2164 4c        ld      c,h
2165 50        ld      d,b
2166 204d      jr      nz,21b5h
2168 45        ld      b,l
2169 4e        ld      c,(hl)
216a 55        ld      d,l
216b 2d        dec     l
216c 2043      jr      nz,21b1h
216e 4c        ld      c,h
216f 45        ld      b,l
2170 41        ld      b,c
2171 52        ld      d,d
2172 2054      jr      nz,21c8h
2174 4f        ld      c,a
2175 2045      jr      nz,21bch
2177 58        ld      e,b
2178 49        ld      c,c
2179 54        ld      d,h
217a 2020      jr      nz,219ch
217c 2041      jr      nz,21bfh
217e 4e        ld      c,(hl)
217f 59        ld      e,c
2180 204b      jr      nz,21cdh
2182 45        ld      b,l
2183 59        ld      e,c
2184 2054      jr      nz,21dah
2186 4f        ld      c,a
2187 2043      jr      nz,21cch
2189 4f        ld      c,a
218a 4e        ld      c,(hl)
218b 54        ld      d,h
218c 49        ld      c,c
218d 4e        ld      c,(hl)
218e 55        ld      d,l
218f 45        ld      b,l
2190 2020      jr      nz,21b2h
2192 2046      jr      nz,21dah
2194 323d20    ld      (203dh),a
2197 54        ld      d,h
2198 4f        ld      c,a
2199 47        ld      b,a
219a 47        ld      b,a
219b 4c        ld      c,h
219c 45        ld      b,l
219d 2042      jr      nz,21e1h
219f 49        ld      c,c
21a0 54        ld      d,h
21a1 53        ld      d,e
21a2 204f      jr      nz,21f3h
21a4 46        ld      b,(hl)
21a5 2020      jr      nz,21c7h
21a7 2020      jr      nz,21c9h
21a9 2020      jr      nz,21cbh
21ab 56        ld      d,(hl)
21ac 41        ld      b,c
21ad 4c        ld      c,h
21ae 55        ld      d,l
21af 45        ld      b,l
21b0 2049      jr      nz,21fbh
21b2 4e        ld      c,(hl)
21b3 2050      jr      nz,2205h
21b5 4f        ld      c,a
21b6 52        ld      d,d
21b7 54        ld      d,h
21b8 205f      jr      nz,2219h
21ba 5f        ld      e,a
21bb 48        ld      c,b
21bc 2020      jr      nz,21deh
21be 46        ld      b,(hl)
21bf 33        inc     sp
21c0 3d        dec     a
21c1 2056      jr      nz,2219h
21c3 49        ld      c,c
21c4 45        ld      b,l
21c5 57        ld      d,a
21c6 2043      jr      nz,220bh
21c8 4f        ld      c,a
21c9 4e        ld      c,(hl)
21ca 54        ld      d,h
21cb 45        ld      b,l
21cc 4e        ld      c,(hl)
21cd 54        ld      d,h
21ce 53        ld      d,e
21cf 204f      jr      nz,2220h
21d1 46        ld      b,(hl)
21d2 2020      jr      nz,21f4h
21d4 204d      jr      nz,2223h
21d6 45        ld      b,l
21d7 4d        ld      c,l
21d8 4f        ld      c,a
21d9 52        ld      d,d
21da 59        ld      e,c
21db 204c      jr      nz,2229h
21dd 4f        ld      c,a
21de 43        ld      b,e
21df 41        ld      b,c
21e0 54        ld      d,h
21e1 49        ld      c,c
21e2 4f        ld      c,a
21e3 4e        ld      c,(hl)
21e4 205f      jr      nz,2245h
21e6 5f        ld      e,a
21e7 5f        ld      e,a
21e8 5f        ld      e,a
21e9 48        ld      c,b
21ea 2e46      ld      l,46h
21ec 35        dec     (hl)
21ed 3d        dec     a
21ee 2056      jr      nz,2246h
21f0 49        ld      c,c
21f1 45        ld      b,l
21f2 57        ld      d,a
21f3 2043      jr      nz,2238h
21f5 4f        ld      c,a
21f6 4e        ld      c,(hl)
21f7 54        ld      d,h
21f8 45        ld      b,l
21f9 4e        ld      c,(hl)
21fa 54        ld      d,h
21fb 53        ld      d,e
21fc 204f      jr      nz,224dh
21fe 46        ld      b,(hl)
21ff 2049      jr      nz,224ah
2201 2f        cpl     
2202 4f        ld      c,a
2203 4c        ld      c,h
2204 4f        ld      c,a
2205 43        ld      b,e
2206 41        ld      b,c
2207 54        ld      d,h
2208 49        ld      c,c
2209 4f        ld      c,a
220a 4e        ld      c,(hl)
220b 205f      jr      nz,226ch
220d 5f        ld      e,a
220e 48        ld      c,b
220f 2049      jr      nz,225ah
2211 4e        ld      c,(hl)
2212 2042      jr      nz,2256h
2214 49        ld      c,c
2215 4e        ld      c,(hl)
2216 41        ld      b,c
2217 52        ld      d,d
2218 59        ld      e,c
2219 2e20      ld      l,20h
221b 2046      jr      nz,2263h
221d 34        inc     (hl)
221e 3d        dec     a
221f 2043      jr      nz,2264h
2221 48        ld      c,b
2222 41        ld      b,c
2223 4e        ld      c,(hl)
2224 47        ld      b,a
2225 45        ld      b,l
2226 2056      jr      nz,227eh
2228 41        ld      b,c
2229 4c        ld      c,h
222a 55        ld      d,l
222b 45        ld      b,l
222c 2049      jr      nz,2277h
222e 4e        ld      c,(hl)
222f 2020      jr      nz,2251h
2231 2020      jr      nz,2253h
2233 4d        ld      c,l
2234 45        ld      b,l
2235 4d        ld      c,l
2236 4f        ld      c,a
2237 52        ld      d,d
2238 59        ld      e,c
2239 204c      jr      nz,2287h
223b 4f        ld      c,a
223c 43        ld      b,e
223d 41        ld      b,c
223e 54        ld      d,h
223f 49        ld      c,c
2240 4f        ld      c,a
2241 4e        ld      c,(hl)
2242 205f      jr      nz,22a3h
2244 5f        ld      e,a
2245 5f        ld      e,a
2246 5f        ld      e,a
2247 48        ld      c,b
2248 2e46      ld      l,46h
224a 363d      ld      (hl),3dh
224c 2043      jr      nz,2291h
224e 48        ld      c,b
224f 41        ld      b,c
2250 4e        ld      c,(hl)
2251 47        ld      b,a
2252 45        ld      b,l
2253 2056      jr      nz,22abh
2255 41        ld      b,c
2256 4c        ld      c,h
2257 55        ld      d,l
2258 45        ld      b,l
2259 204f      jr      nz,22aah
225b 46        ld      b,(hl)
225c 2049      jr      nz,22a7h
225e 2f        cpl     
225f 4f        ld      c,a
2260 2020      jr      nz,2282h
2262 2020      jr      nz,2284h
2264 4c        ld      c,h
2265 4f        ld      c,a
2266 43        ld      b,e
2267 41        ld      b,c
2268 54        ld      d,h
2269 49        ld      c,c
226a 4f        ld      c,a
226b 4e        ld      c,(hl)
226c 205f      jr      nz,22cdh
226e 5f        ld      e,a
226f 48        ld      c,b
2270 2e20      ld      l,20h
2272 46        ld      b,(hl)
2273 37        scf     
2274 3d        dec     a
2275 44        ld      b,h
2276 45        ld      b,l
2277 43        ld      b,e
2278 52        ld      d,d
2279 45        ld      b,l
227a 4d        ld      c,l
227b 45        ld      b,l
227c 4e        ld      c,(hl)
227d 54        ld      d,h
227e 2054      jr      nz,22d4h
2280 4f        ld      c,a
2281 2050      jr      nz,22d3h
2283 52        ld      d,d
2284 45        ld      b,l
2285 56        ld      d,(hl)
2286 49        ld      c,c
2287 4f        ld      c,a
2288 55        ld      d,l
2289 53        ld      d,e
228a 4d        ld      c,l
228b 45        ld      b,l
228c 4d        ld      c,l
228d 4f        ld      c,a
228e 52        ld      d,d
228f 59        ld      e,c
2290 204f      jr      nz,22e1h
2292 52        ld      d,d
2293 2050      jr      nz,22e5h
2295 4f        ld      c,a
2296 52        ld      d,d
2297 54        ld      d,h
2298 204c      jr      nz,22e6h
229a 4f        ld      c,a
229b 43        ld      b,e
229c 41        ld      b,c
229d 54        ld      d,h
229e 49        ld      c,c
229f 4f        ld      c,a
22a0 4e        ld      c,(hl)
22a1 2046      jr      nz,22e9h
22a3 383d      jr      c,22e2h
22a5 2049      jr      nz,22f0h
22a7 4e        ld      c,(hl)
22a8 43        ld      b,e
22a9 52        ld      d,d
22aa 45        ld      b,l
22ab 4d        ld      c,l
22ac 45        ld      b,l
22ad 4e        ld      c,(hl)
22ae 54        ld      d,h
22af 2054      jr      nz,2305h
22b1 4f        ld      c,a
22b2 204e      jr      nz,2302h
22b4 45        ld      b,l
22b5 58        ld      e,b
22b6 54        ld      d,h
22b7 2020      jr      nz,22d9h
22b9 4d        ld      c,l
22ba 45        ld      b,l
22bb 4d        ld      c,l
22bc 4f        ld      c,a
22bd 52        ld      d,d
22be 59        ld      e,c
22bf 204f      jr      nz,2310h
22c1 52        ld      d,d
22c2 2050      jr      nz,2314h
22c4 4f        ld      c,a
22c5 52        ld      d,d
22c6 54        ld      d,h
22c7 204c      jr      nz,2315h
22c9 4f        ld      c,a
22ca 43        ld      b,e
22cb 41        ld      b,c
22cc 54        ld      d,h
22cd 49        ld      c,c
22ce 4f        ld      c,a
22cf 4e        ld      c,(hl)
22d0 41        ld      b,c
22d1 44        ld      b,h
22d2 44        ld      b,h
22d3 52        ld      d,d
22d4 45        ld      b,l
22d5 53        ld      d,e
22d6 53        ld      d,e
22d7 2054      jr      nz,232dh
22d9 4f        ld      c,a
22da 2056      jr      nz,2332h
22dc 49        ld      c,c
22dd 45        ld      b,l
22de 57        ld      d,a
22df 2020      jr      nz,2301h
22e1 205f      jr      nz,2342h
22e3 5f        ld      e,a
22e4 5f        ld      e,a
22e5 5f        ld      e,a
22e6 48        ld      c,b
22e7 43        ld      b,e
22e8 4f        ld      c,a
22e9 4e        ld      c,(hl)
22ea 54        ld      d,h
22eb 45        ld      b,l
22ec 4e        ld      c,(hl)
22ed 54        ld      d,h
22ee 53        ld      d,e
22ef 2041      jr      nz,2332h
22f1 52        ld      d,d
22f2 45        ld      b,l
22f3 3a4144    ld      a,(4441h)
22f6 44        ld      b,h
22f7 52        ld      d,d
22f8 45        ld      b,l
22f9 53        ld      d,e
22fa 53        ld      d,e
22fb 2054      jr      nz,2351h
22fd 4f        ld      c,a
22fe 2043      jr      nz,2343h
2300 48        ld      c,b
2301 41        ld      b,c
2302 4e        ld      c,(hl)
2303 47        ld      b,a
2304 45        ld      b,l
2305 205f      jr      nz,2366h
2307 5f        ld      e,a
2308 5f        ld      e,a
2309 5f        ld      e,a
230a 48        ld      c,b
230b 43        ld      b,e
230c 55        ld      d,l
230d 52        ld      d,d
230e 52        ld      d,d
230f 45        ld      b,l
2310 4e        ld      c,(hl)
2311 54        ld      d,h
2312 4c        ld      c,h
2313 59        ld      e,c
2314 3a4820    ld      a,(2048h)
2317 204e      jr      nz,2367h
2319 45        ld      b,l
231a 57        ld      d,a
231b 3a5f5f    ld      a,(5f5fh)
231e 48        ld      c,b
231f 57        ld      d,a
2320 48        ld      c,b
2321 49        ld      c,c
2322 43        ld      b,e
2323 48        ld      c,b
2324 2050      jr      nz,2376h
2326 4f        ld      c,a
2327 52        ld      d,d
2328 54        ld      d,h
2329 2054      jr      nz,237fh
232b 4f        ld      c,a
232c 2056      jr      nz,2384h
232e 49        ld      c,c
232f 45        ld      b,l
2330 57        ld      d,a
2331 3a205f    ld      a,(5f20h)
2334 5f        ld      e,a
2335 48        ld      c,b
2336 2020      jr      nz,2358h
2338 56        ld      d,(hl)
2339 41        ld      b,c
233a 4c        ld      c,h
233b 55        ld      d,l
233c 45        ld      b,l
233d 3a4820    ld      a,(2048h)
2340 204f      jr      nz,2391h
2342 52        ld      d,d
2343 2020      jr      nz,2365h
2345 2020      jr      nz,2367h
2347 2020      jr      nz,2369h
2349 50        ld      d,b
234a 4f        ld      c,a
234b 52        ld      d,d
234c 54        ld      d,h
234d 2054      jr      nz,23a3h
234f 4f        ld      c,a
2350 2043      jr      nz,2395h
2352 48        ld      c,b
2353 41        ld      b,c
2354 4e        ld      c,(hl)
2355 47        ld      b,a
2356 45        ld      b,l
2357 2020      jr      nz,2379h
2359 5f        ld      e,a
235a 5f        ld      e,a
235b 48        ld      c,b
235c 2057      jr      nz,23b5h
235e 48        ld      c,b
235f 49        ld      c,c
2360 43        ld      b,e
2361 48        ld      c,b
2362 2050      jr      nz,23b4h
2364 4f        ld      c,a
2365 52        ld      d,d
2366 54        ld      d,h
2367 2054      jr      nz,23bdh
2369 4f        ld      c,a
236a 2020      jr      nz,238ch
236c 37        scf     
236d 3635      ld      (hl),35h
236f 34        inc     (hl)
2370 33        inc     sp
2371 323130    ld      (3031h),a
2374 2020      jr      nz,2396h
2376 54        ld      d,h
2377 4f        ld      c,a
2378 47        ld      b,a
2379 47        ld      b,a
237a 4c        ld      c,h
237b 45        ld      b,l
237c 3a205f    ld      a,(5f20h)
237f 5f        ld      e,a
2380 48        ld      c,b
2381 0f        rrca    
2382 0f        rrca    
2383 0f        rrca    
2384 0f        rrca    
2385 c9        ret     

2386 07        rlca    
2387 07        rlca    
2388 07        rlca    
2389 07        rlca    
238a c9        ret     

238b 3e30      ld      a,30h
238d d3f4      out     (0f4h),a
238f c9        ret     

2390 3e31      ld      a,31h
2392 d3f4      out     (0f4h),a
2394 c9        ret     

2395 ff        rst     38h
2396 ff        rst     38h
2397 ff        rst     38h
2398 ff        rst     38h
2399 ff        rst     38h
239a ff        rst     38h
239b ff        rst     38h
239c ff        rst     38h
239d ff        rst     38h
239e ff        rst     38h
239f ff        rst     38h
23a0 ff        rst     38h
23a1 ff        rst     38h
23a2 ff        rst     38h
23a3 ff        rst     38h
23a4 ff        rst     38h
23a5 ff        rst     38h
23a6 ff        rst     38h
23a7 ff        rst     38h
23a8 ff        rst     38h
23a9 ff        rst     38h
23aa ff        rst     38h
23ab ff        rst     38h
23ac ff        rst     38h
23ad ff        rst     38h
23ae ff        rst     38h
23af ff        rst     38h
23b0 ff        rst     38h
23b1 ff        rst     38h
23b2 ff        rst     38h
23b3 ff        rst     38h
23b4 ff        rst     38h
23b5 ff        rst     38h
23b6 ff        rst     38h
23b7 ff        rst     38h
23b8 ff        rst     38h
23b9 ff        rst     38h
23ba ff        rst     38h
23bb ff        rst     38h
23bc ff        rst     38h
23bd ff        rst     38h
23be ff        rst     38h
23bf ff        rst     38h
23c0 ff        rst     38h
23c1 ff        rst     38h
23c2 ff        rst     38h
23c3 ff        rst     38h
23c4 ff        rst     38h
23c5 ff        rst     38h
23c6 ff        rst     38h
23c7 ff        rst     38h
23c8 ff        rst     38h
23c9 ff        rst     38h
23ca ff        rst     38h
23cb ff        rst     38h
23cc ff        rst     38h
23cd ff        rst     38h
23ce ff        rst     38h
23cf ff        rst     38h
23d0 ff        rst     38h
23d1 ff        rst     38h
23d2 ff        rst     38h
23d3 ff        rst     38h
23d4 ff        rst     38h
23d5 ff        rst     38h
23d6 ff        rst     38h
23d7 ff        rst     38h
23d8 ff        rst     38h
23d9 ff        rst     38h
23da ff        rst     38h
23db ff        rst     38h
23dc ff        rst     38h
23dd ff        rst     38h
23de ff        rst     38h
23df ff        rst     38h
23e0 ff        rst     38h
23e1 ff        rst     38h
23e2 ff        rst     38h
23e3 ff        rst     38h
23e4 ff        rst     38h
23e5 ff        rst     38h
23e6 ff        rst     38h
23e7 ff        rst     38h
23e8 ff        rst     38h
23e9 ff        rst     38h
23ea ff        rst     38h
23eb ff        rst     38h
23ec ff        rst     38h
23ed ff        rst     38h
23ee ff        rst     38h
23ef ff        rst     38h
23f0 ff        rst     38h
23f1 ff        rst     38h
23f2 ff        rst     38h
23f3 ff        rst     38h
23f4 ff        rst     38h
23f5 ff        rst     38h
23f6 ff        rst     38h
23f7 ff        rst     38h
23f8 ff        rst     38h
23f9 ff        rst     38h
23fa ff        rst     38h
23fb ff        rst     38h
23fc ff        rst     38h
23fd ff        rst     38h
23fe ff        rst     38h
23ff ff        rst     38h
2400 cd1425    call    2514h
2403 c9        ret     

2404 3e00      ld      a,00h
2406 3213a3    ld      (0a313h),a
2409 3206a3    ld      (0a306h),a
240c 3207a3    ld      (0a307h),a
240f 3208a3    ld      (0a308h),a
2412 3209a3    ld      (0a309h),a
2415 320aa3    ld      (0a30ah),a
2418 320ba3    ld      (0a30bh),a
241b 320ca3    ld      (0a30ch),a
241e 320da3    ld      (0a30dh),a
2421 320ea3    ld      (0a30eh),a
2424 c9        ret     

2425 3e00      ld      a,00h
2427 3213a3    ld      (0a313h),a
242a 3201a3    ld      (0a301h),a
242d 3202a3    ld      (0a302h),a
2430 3203a3    ld      (0a303h),a
2433 3204a3    ld      (0a304h),a
2436 c34024    jp      2440h
2439 2104a3    ld      hl,0a304h
243c cda624    call    24a6h
243f c9        ret     

2440 ddcb0d46  bit     0,(ix+0dh)
2444 c0        ret     nz

2445 2104a3    ld      hl,0a304h
2448 110da3    ld      de,0a30dh
244b cd8c24    call    248ch
244e 210da3    ld      hl,0a30dh
2451 cd7824    call    2478h
2454 215d24    ld      hl,245dh
2457 cdd124    call    24d1h
245a c36924    jp      2469h
245d 00        nop     
245e 50        ld      d,b
245f 41        ld      b,c
2460 52        ld      d,d
2461 54        ld      d,h
2462 53        ld      d,e
2463 2043      jr      nz,24a8h
2465 4f        ld      c,a
2466 55        ld      d,l
2467 4e        ld      c,(hl)
2468 54        ld      d,h
2469 00        nop     
246a 217324    ld      hl,2473h
246d cdfd24    call    24fdh
2470 c37624    jp      2476h
2473 0c        inc     c
2474 06a3      ld      b,0a3h
2476 00        nop     
2477 c9        ret     

2478 010700    ld      bc,0007h
247b 37        scf     
247c 3f        ccf     
247d ed42      sbc     hl,bc
247f 0607      ld      b,07h
2481 7e        ld      a,(hl)
2482 fe30      cp      30h
2484 c0        ret     nz

2485 3e20      ld      a,20h
2487 77        ld      (hl),a
2488 23        inc     hl
2489 10f6      djnz    2481h
248b c9        ret     

248c 010204    ld      bc,0402h
248f 7e        ld      a,(hl)
2490 f5        push    af
2491 e60f      and     0fh
2493 c630      add     a,30h
2495 12        ld      (de),a
2496 f1        pop     af
2497 1f        rra     
2498 1f        rra     
2499 1f        rra     
249a 1f        rra     
249b 1b        dec     de
249c 0d        dec     c
249d c29024    jp      nz,2490h
24a0 0e02      ld      c,02h
24a2 2b        dec     hl
24a3 10ea      djnz    248fh
24a5 c9        ret     

24a6 0604      ld      b,04h
24a8 37        scf     
24a9 7e        ld      a,(hl)
24aa ce00      adc     a,00h
24ac 27        daa     
24ad 77        ld      (hl),a
24ae 2b        dec     hl
24af 10f8      djnz    24a9h
24b1 c9        ret     

24b2 3e01      ld      a,01h
24b4 86        add     a,(hl)
24b5 77        ld      (hl),a
24b6 d2bc24    jp      nc,24bch
24b9 23        inc     hl
24ba 34        inc     (hl)
24bb 2b        dec     hl
24bc 00        nop     
24bd c9        ret     

24be 4e        ld      c,(hl)
24bf 23        inc     hl
24c0 46        ld      b,(hl)
24c1 62        ld      h,d
24c2 6b        ld      l,e
24c3 7e        ld      a,(hl)
24c4 23        inc     hl
24c5 66        ld      h,(hl)
24c6 6f        ld      l,a
24c7 a7        and     a
24c8 ed42      sbc     hl,bc
24ca cad024    jp      z,24d0h
24cd f2d024    jp      p,24d0h
24d0 c9        ret     

24d1 e5        push    hl
24d2 cd0825    call    2508h
24d5 e1        pop     hl
24d6 cded24    call    24edh
24d9 7e        ld      a,(hl)
24da fe00      cp      00h
24dc cae424    jp      z,24e4h
24df eda0      ldi     
24e1 c3d924    jp      24d9h
24e4 3a13a3    ld      a,(0a313h)
24e7 cbcf      set     1,a
24e9 3213a3    ld      (0a313h),a
24ec c9        ret     

24ed 1600      ld      d,00h
24ef 5e        ld      e,(hl)
24f0 23        inc     hl
24f1 e5        push    hl
24f2 37        scf     
24f3 3f        ccf     
24f4 2100a4    ld      hl,0a400h
24f7 ed5a      adc     hl,de
24f9 54        ld      d,h
24fa 5d        ld      e,l
24fb e1        pop     hl
24fc c9        ret     

24fd cded24    call    24edh
2500 4e        ld      c,(hl)
2501 23        inc     hl
2502 46        ld      b,(hl)
2503 60        ld      h,b
2504 69        ld      l,c
2505 c3d924    jp      24d9h
2508 3e20      ld      a,20h
250a 0630      ld      b,30h
250c 2100a4    ld      hl,0a400h
250f 77        ld      (hl),a
2510 23        inc     hl
2511 10fc      djnz    250fh
2513 c9        ret     

2514 3a13a3    ld      a,(0a313h)
2517 cb47      bit     0,a
2519 c24125    jp      nz,2541h
251c cb4f      bit     1,a
251e c8        ret     z

251f cbc7      set     0,a
2521 cb8f      res     1,a
2523 3213a3    ld      (0a313h),a
2526 3e30      ld      a,30h
2528 3212a3    ld      (0a312h),a
252b 3e20      ld      a,20h
252d 3210a3    ld      (0a310h),a
2530 3e20      ld      a,20h
2532 3211a3    ld      (0a311h),a
2535 2100a4    ld      hl,0a400h
2538 221aa3    ld      (0a31ah),hl
253b 214525    ld      hl,2545h
253e 2218a3    ld      (0a318h),hl
2541 2a18a3    ld      hl,(0a318h)
2544 e9        jp      (hl)
2545 dbf5      in      a,(0f5h)
2547 cb57      bit     2,a
2549 c8        ret     z

254a 3e1b      ld      a,1bh
254c d3f4      out     (0f4h),a
254e 215425    ld      hl,2554h
2551 2218a3    ld      (0a318h),hl
2554 dbf5      in      a,(0f5h)
2556 cb57      bit     2,a
2558 c8        ret     z

2559 3e47      ld      a,47h
255b d3f4      out     (0f4h),a
255d 216325    ld      hl,2563h
2560 2218a3    ld      (0a318h),hl
2563 dbf5      in      a,(0f5h)
2565 cb57      bit     2,a
2567 c8        ret     z

2568 3a10a3    ld      a,(0a310h)
256b d3f4      out     (0f4h),a
256d 217325    ld      hl,2573h
2570 2218a3    ld      (0a318h),hl
2573 dbf5      in      a,(0f5h)
2575 cb57      bit     2,a
2577 c8        ret     z

2578 3a11a3    ld      a,(0a311h)
257b d3f4      out     (0f4h),a
257d 218325    ld      hl,2583h
2580 2218a3    ld      (0a318h),hl
2583 dbf5      in      a,(0f5h)
2585 cb57      bit     2,a
2587 c8        ret     z

2588 2a1aa3    ld      hl,(0a31ah)
258b 7e        ld      a,(hl)
258c d3f4      out     (0f4h),a
258e 23        inc     hl
258f 221aa3    ld      (0a31ah),hl
2592 3a12a3    ld      a,(0a312h)
2595 3d        dec     a
2596 3212a3    ld      (0a312h),a
2599 c28325    jp      nz,2583h
259c 3a13a3    ld      a,(0a313h)
259f cb87      res     0,a
25a1 3213a3    ld      (0a313h),a
25a4 c9        ret     

25a5 ff        rst     38h
25a6 ff        rst     38h
25a7 ff        rst     38h
25a8 ff        rst     38h
25a9 ff        rst     38h
25aa ff        rst     38h
25ab ff        rst     38h
25ac ff        rst     38h
25ad ff        rst     38h
25ae ff        rst     38h
25af ff        rst     38h
25b0 ff        rst     38h
25b1 ff        rst     38h
25b2 ff        rst     38h
25b3 ff        rst     38h
25b4 ff        rst     38h
25b5 ff        rst     38h
25b6 ff        rst     38h
25b7 ff        rst     38h
25b8 ff        rst     38h
25b9 ff        rst     38h
25ba ff        rst     38h
25bb ff        rst     38h
25bc ff        rst     38h
25bd ff        rst     38h
25be ff        rst     38h
25bf ff        rst     38h
25c0 ff        rst     38h
25c1 ff        rst     38h
25c2 ff        rst     38h
25c3 ff        rst     38h
25c4 ff        rst     38h
25c5 ff        rst     38h
25c6 ff        rst     38h
25c7 ff        rst     38h
25c8 ff        rst     38h
25c9 ff        rst     38h
25ca ff        rst     38h
25cb ff        rst     38h
25cc ff        rst     38h
25cd ff        rst     38h
25ce ff        rst     38h
25cf ff        rst     38h
25d0 ff        rst     38h
25d1 ff        rst     38h
25d2 ff        rst     38h
25d3 ff        rst     38h
25d4 ff        rst     38h
25d5 ff        rst     38h
25d6 ff        rst     38h
25d7 ff        rst     38h
25d8 ff        rst     38h
25d9 ff        rst     38h
25da ff        rst     38h
25db ff        rst     38h
25dc ff        rst     38h
25dd ff        rst     38h
25de ff        rst     38h
25df ff        rst     38h
25e0 ff        rst     38h
25e1 ff        rst     38h
25e2 ff        rst     38h
25e3 ff        rst     38h
25e4 ff        rst     38h
25e5 ff        rst     38h
25e6 ff        rst     38h
25e7 ff        rst     38h
25e8 ff        rst     38h
25e9 ff        rst     38h
25ea ff        rst     38h
25eb ff        rst     38h
25ec ff        rst     38h
25ed ff        rst     38h
25ee ff        rst     38h
25ef ff        rst     38h
25f0 ff        rst     38h
25f1 ff        rst     38h
25f2 ff        rst     38h
25f3 ff        rst     38h
25f4 ff        rst     38h
25f5 ff        rst     38h
25f6 ff        rst     38h
25f7 ff        rst     38h
25f8 ff        rst     38h
25f9 ff        rst     38h
25fa ff        rst     38h
25fb ff        rst     38h
25fc ff        rst     38h
25fd ff        rst     38h
25fe ff        rst     38h
25ff ff        rst     38h
2600 ff        rst     38h
2601 ff        rst     38h
2602 ff        rst     38h
2603 ff        rst     38h
2604 ff        rst     38h
2605 ff        rst     38h
2606 ff        rst     38h
2607 ff        rst     38h
2608 ff        rst     38h
2609 ff        rst     38h
260a ff        rst     38h
260b ff        rst     38h
260c ff        rst     38h
260d ff        rst     38h
260e ff        rst     38h
260f ff        rst     38h
2610 ff        rst     38h
2611 ff        rst     38h
2612 ff        rst     38h
2613 ff        rst     38h
2614 ff        rst     38h
2615 ff        rst     38h
2616 ff        rst     38h
2617 ff        rst     38h
2618 ff        rst     38h
2619 ff        rst     38h
261a ff        rst     38h
261b ff        rst     38h
261c ff        rst     38h
261d ff        rst     38h
261e ff        rst     38h
261f ff        rst     38h
2620 ff        rst     38h
2621 ff        rst     38h
2622 ff        rst     38h
2623 ff        rst     38h
2624 ff        rst     38h
2625 ff        rst     38h
2626 ff        rst     38h
2627 ff        rst     38h
2628 ff        rst     38h
2629 ff        rst     38h
262a ff        rst     38h
262b ff        rst     38h
262c ff        rst     38h
262d ff        rst     38h
262e ff        rst     38h
262f ff        rst     38h
2630 ff        rst     38h
2631 ff        rst     38h
2632 ff        rst     38h
2633 ff        rst     38h
2634 ff        rst     38h
2635 ff        rst     38h
2636 ff        rst     38h
2637 ff        rst     38h
2638 ff        rst     38h
2639 ff        rst     38h
263a ff        rst     38h
263b ff        rst     38h
263c ff        rst     38h
263d ff        rst     38h
263e ff        rst     38h
263f ff        rst     38h
2640 ff        rst     38h
2641 ff        rst     38h
2642 ff        rst     38h
2643 ff        rst     38h
2644 ff        rst     38h
2645 ff        rst     38h
2646 ff        rst     38h
2647 ff        rst     38h
2648 ff        rst     38h
2649 ff        rst     38h
264a ff        rst     38h
264b ff        rst     38h
264c ff        rst     38h
264d ff        rst     38h
264e ff        rst     38h
264f ff        rst     38h
2650 ff        rst     38h
2651 ff        rst     38h
2652 ff        rst     38h
2653 ff        rst     38h
2654 ff        rst     38h
2655 ff        rst     38h
2656 ff        rst     38h
2657 ff        rst     38h
2658 ff        rst     38h
2659 ff        rst     38h
265a ff        rst     38h
265b ff        rst     38h
265c ff        rst     38h
265d ff        rst     38h
265e ff        rst     38h
265f ff        rst     38h
2660 ff        rst     38h
2661 ff        rst     38h
2662 ff        rst     38h
2663 ff        rst     38h
2664 ff        rst     38h
2665 ff        rst     38h
2666 ff        rst     38h
2667 ff        rst     38h
2668 ff        rst     38h
2669 ff        rst     38h
266a ff        rst     38h
266b ff        rst     38h
266c ff        rst     38h
266d ff        rst     38h
266e ff        rst     38h
266f ff        rst     38h
2670 ff        rst     38h
2671 ff        rst     38h
2672 ff        rst     38h
2673 ff        rst     38h
2674 ff        rst     38h
2675 ff        rst     38h
2676 ff        rst     38h
2677 ff        rst     38h
2678 ff        rst     38h
2679 ff        rst     38h
267a ff        rst     38h
267b ff        rst     38h
267c ff        rst     38h
267d ff        rst     38h
267e ff        rst     38h
267f ff        rst     38h
2680 ff        rst     38h
2681 ff        rst     38h
2682 ff        rst     38h
2683 ff        rst     38h
2684 ff        rst     38h
2685 ff        rst     38h
2686 ff        rst     38h
2687 ff        rst     38h
2688 ff        rst     38h
2689 ff        rst     38h
268a ff        rst     38h
268b ff        rst     38h
268c ff        rst     38h
268d ff        rst     38h
268e ff        rst     38h
268f ff        rst     38h
2690 ff        rst     38h
2691 ff        rst     38h
2692 ff        rst     38h
2693 ff        rst     38h
2694 ff        rst     38h
2695 ff        rst     38h
2696 ff        rst     38h
2697 ff        rst     38h
2698 ff        rst     38h
2699 ff        rst     38h
269a ff        rst     38h
269b ff        rst     38h
269c ff        rst     38h
269d ff        rst     38h
269e ff        rst     38h
269f ff        rst     38h
26a0 ff        rst     38h
26a1 ff        rst     38h
26a2 ff        rst     38h
26a3 ff        rst     38h
26a4 ff        rst     38h
26a5 ff        rst     38h
26a6 ff        rst     38h
26a7 ff        rst     38h
26a8 ff        rst     38h
26a9 ff        rst     38h
26aa ff        rst     38h
26ab ff        rst     38h
26ac ff        rst     38h
26ad ff        rst     38h
26ae ff        rst     38h
26af ff        rst     38h
26b0 ff        rst     38h
26b1 ff        rst     38h
26b2 ff        rst     38h
26b3 ff        rst     38h
26b4 ff        rst     38h
26b5 ff        rst     38h
26b6 ff        rst     38h
26b7 ff        rst     38h
26b8 ff        rst     38h
26b9 ff        rst     38h
26ba ff        rst     38h
26bb ff        rst     38h
26bc ff        rst     38h
26bd ff        rst     38h
26be ff        rst     38h
26bf ff        rst     38h
26c0 ff        rst     38h
26c1 ff        rst     38h
26c2 ff        rst     38h
26c3 ff        rst     38h
26c4 ff        rst     38h
26c5 ff        rst     38h
26c6 ff        rst     38h
26c7 ff        rst     38h
26c8 ff        rst     38h
26c9 ff        rst     38h
26ca ff        rst     38h
26cb ff        rst     38h
26cc ff        rst     38h
26cd ff        rst     38h
26ce ff        rst     38h
26cf ff        rst     38h
26d0 ff        rst     38h
26d1 ff        rst     38h
26d2 ff        rst     38h
26d3 ff        rst     38h
26d4 ff        rst     38h
26d5 ff        rst     38h
26d6 ff        rst     38h
26d7 ff        rst     38h
26d8 ff        rst     38h
26d9 ff        rst     38h
26da ff        rst     38h
26db ff        rst     38h
26dc ff        rst     38h
26dd ff        rst     38h
26de ff        rst     38h
26df ff        rst     38h
26e0 ff        rst     38h
26e1 ff        rst     38h
26e2 ff        rst     38h
26e3 ff        rst     38h
26e4 ff        rst     38h
26e5 ff        rst     38h
26e6 ff        rst     38h
26e7 ff        rst     38h
26e8 ff        rst     38h
26e9 ff        rst     38h
26ea ff        rst     38h
26eb ff        rst     38h
26ec ff        rst     38h
26ed ff        rst     38h
26ee ff        rst     38h
26ef ff        rst     38h
26f0 ff        rst     38h
26f1 ff        rst     38h
26f2 ff        rst     38h
26f3 ff        rst     38h
26f4 ff        rst     38h
26f5 ff        rst     38h
26f6 ff        rst     38h
26f7 ff        rst     38h
26f8 ff        rst     38h
26f9 ff        rst     38h
26fa ff        rst     38h
26fb ff        rst     38h
26fc ff        rst     38h
26fd ff        rst     38h
26fe ff        rst     38h
26ff ff        rst     38h
2700 ff        rst     38h
2701 ff        rst     38h
2702 ff        rst     38h
2703 ff        rst     38h
2704 ff        rst     38h
2705 ff        rst     38h
2706 ff        rst     38h
2707 ff        rst     38h
2708 ff        rst     38h
2709 ff        rst     38h
270a ff        rst     38h
270b ff        rst     38h
270c ff        rst     38h
270d ff        rst     38h
270e ff        rst     38h
270f ff        rst     38h
2710 ff        rst     38h
2711 ff        rst     38h
2712 ff        rst     38h
2713 ff        rst     38h
2714 ff        rst     38h
2715 ff        rst     38h
2716 ff        rst     38h
2717 ff        rst     38h
2718 ff        rst     38h
2719 ff        rst     38h
271a ff        rst     38h
271b ff        rst     38h
271c ff        rst     38h
271d ff        rst     38h
271e ff        rst     38h
271f ff        rst     38h
2720 ff        rst     38h
2721 ff        rst     38h
2722 ff        rst     38h
2723 ff        rst     38h
2724 ff        rst     38h
2725 ff        rst     38h
2726 ff        rst     38h
2727 ff        rst     38h
2728 ff        rst     38h
2729 ff        rst     38h
272a ff        rst     38h
272b ff        rst     38h
272c ff        rst     38h
272d ff        rst     38h
272e ff        rst     38h
272f ff        rst     38h
2730 ff        rst     38h
2731 ff        rst     38h
2732 ff        rst     38h
2733 ff        rst     38h
2734 ff        rst     38h
2735 ff        rst     38h
2736 ff        rst     38h
2737 ff        rst     38h
2738 ff        rst     38h
2739 ff        rst     38h
273a ff        rst     38h
273b ff        rst     38h
273c ff        rst     38h
273d ff        rst     38h
273e ff        rst     38h
273f ff        rst     38h
2740 ff        rst     38h
2741 ff        rst     38h
2742 ff        rst     38h
2743 ff        rst     38h
2744 ff        rst     38h
2745 ff        rst     38h
2746 ff        rst     38h
2747 ff        rst     38h
2748 ff        rst     38h
2749 ff        rst     38h
274a ff        rst     38h
274b ff        rst     38h
274c ff        rst     38h
274d ff        rst     38h
274e ff        rst     38h
274f ff        rst     38h
2750 ff        rst     38h
2751 ff        rst     38h
2752 ff        rst     38h
2753 ff        rst     38h
2754 ff        rst     38h
2755 ff        rst     38h
2756 ff        rst     38h
2757 ff        rst     38h
2758 ff        rst     38h
2759 ff        rst     38h
275a ff        rst     38h
275b ff        rst     38h
275c ff        rst     38h
275d ff        rst     38h
275e ff        rst     38h
275f ff        rst     38h
2760 ff        rst     38h
2761 ff        rst     38h
2762 ff        rst     38h
2763 ff        rst     38h
2764 ff        rst     38h
2765 ff        rst     38h
2766 ff        rst     38h
2767 ff        rst     38h
2768 ff        rst     38h
2769 ff        rst     38h
276a ff        rst     38h
276b ff        rst     38h
276c ff        rst     38h
276d ff        rst     38h
276e ff        rst     38h
276f ff        rst     38h
2770 ff        rst     38h
2771 ff        rst     38h
2772 ff        rst     38h
2773 ff        rst     38h
2774 ff        rst     38h
2775 ff        rst     38h
2776 ff        rst     38h
2777 ff        rst     38h
2778 ff        rst     38h
2779 ff        rst     38h
277a ff        rst     38h
277b ff        rst     38h
277c ff        rst     38h
277d ff        rst     38h
277e ff        rst     38h
277f ff        rst     38h
2780 ff        rst     38h
2781 ff        rst     38h
2782 ff        rst     38h
2783 ff        rst     38h
2784 ff        rst     38h
2785 ff        rst     38h
2786 ff        rst     38h
2787 ff        rst     38h
2788 ff        rst     38h
2789 ff        rst     38h
278a ff        rst     38h
278b ff        rst     38h
278c ff        rst     38h
278d ff        rst     38h
278e ff        rst     38h
278f ff        rst     38h
2790 ff        rst     38h
2791 ff        rst     38h
2792 ff        rst     38h
2793 ff        rst     38h
2794 ff        rst     38h
2795 ff        rst     38h
2796 ff        rst     38h
2797 ff        rst     38h
2798 ff        rst     38h
2799 ff        rst     38h
279a ff        rst     38h
279b ff        rst     38h
279c ff        rst     38h
279d ff        rst     38h
279e ff        rst     38h
279f ff        rst     38h
27a0 ff        rst     38h
27a1 ff        rst     38h
27a2 ff        rst     38h
27a3 ff        rst     38h
27a4 ff        rst     38h
27a5 ff        rst     38h
27a6 ff        rst     38h
27a7 ff        rst     38h
27a8 ff        rst     38h
27a9 ff        rst     38h
27aa ff        rst     38h
27ab ff        rst     38h
27ac ff        rst     38h
27ad ff        rst     38h
27ae ff        rst     38h
27af ff        rst     38h
27b0 ff        rst     38h
27b1 ff        rst     38h
27b2 ff        rst     38h
27b3 ff        rst     38h
27b4 ff        rst     38h
27b5 ff        rst     38h
27b6 ff        rst     38h
27b7 ff        rst     38h
27b8 ff        rst     38h
27b9 ff        rst     38h
27ba ff        rst     38h
27bb ff        rst     38h
27bc ff        rst     38h
27bd ff        rst     38h
27be ff        rst     38h
27bf ff        rst     38h
27c0 ff        rst     38h
27c1 ff        rst     38h
27c2 ff        rst     38h
27c3 ff        rst     38h
27c4 ff        rst     38h
27c5 ff        rst     38h
27c6 ff        rst     38h
27c7 ff        rst     38h
27c8 ff        rst     38h
27c9 ff        rst     38h
27ca ff        rst     38h
27cb ff        rst     38h
27cc ff        rst     38h
27cd ff        rst     38h
27ce ff        rst     38h
27cf ff        rst     38h
27d0 ff        rst     38h
27d1 ff        rst     38h
27d2 ff        rst     38h
27d3 ff        rst     38h
27d4 ff        rst     38h
27d5 ff        rst     38h
27d6 ff        rst     38h
27d7 ff        rst     38h
27d8 ff        rst     38h
27d9 ff        rst     38h
27da ff        rst     38h
27db ff        rst     38h
27dc ff        rst     38h
27dd ff        rst     38h
27de ff        rst     38h
27df ff        rst     38h
27e0 ff        rst     38h
27e1 ff        rst     38h
27e2 ff        rst     38h
27e3 ff        rst     38h
27e4 ff        rst     38h
27e5 ff        rst     38h
27e6 ff        rst     38h
27e7 ff        rst     38h
27e8 ff        rst     38h
27e9 ff        rst     38h
27ea ff        rst     38h
27eb ff        rst     38h
27ec ff        rst     38h
27ed ff        rst     38h
27ee ff        rst     38h
27ef ff        rst     38h
27f0 ff        rst     38h
27f1 ff        rst     38h
27f2 ff        rst     38h
27f3 ff        rst     38h
27f4 ff        rst     38h
27f5 ff        rst     38h
27f6 ff        rst     38h
27f7 ff        rst     38h
27f8 ff        rst     38h
27f9 ff        rst     38h
27fa ff        rst     38h
27fb ff        rst     38h
27fc ff        rst     38h
27fd ff        rst     38h
27fe ff        rst     38h
27ff ff        rst     38h
2800 ff        rst     38h
2801 ff        rst     38h
2802 ff        rst     38h
2803 ff        rst     38h
2804 ff        rst     38h
2805 ff        rst     38h
2806 ff        rst     38h
2807 ff        rst     38h
2808 ff        rst     38h
2809 ff        rst     38h
280a ff        rst     38h
280b ff        rst     38h
280c ff        rst     38h
280d ff        rst     38h
280e ff        rst     38h
280f ff        rst     38h
2810 ff        rst     38h
2811 ff        rst     38h
2812 ff        rst     38h
2813 ff        rst     38h
2814 ff        rst     38h
2815 ff        rst     38h
2816 ff        rst     38h
2817 ff        rst     38h
2818 ff        rst     38h
2819 ff        rst     38h
281a ff        rst     38h
281b ff        rst     38h
281c ff        rst     38h
281d ff        rst     38h
281e ff        rst     38h
281f ff        rst     38h
2820 ff        rst     38h
2821 ff        rst     38h
2822 ff        rst     38h
2823 ff        rst     38h
2824 ff        rst     38h
2825 ff        rst     38h
2826 ff        rst     38h
2827 ff        rst     38h
2828 ff        rst     38h
2829 ff        rst     38h
282a ff        rst     38h
282b ff        rst     38h
282c ff        rst     38h
282d ff        rst     38h
282e ff        rst     38h
282f ff        rst     38h
2830 ff        rst     38h
2831 ff        rst     38h
2832 ff        rst     38h
2833 ff        rst     38h
2834 ff        rst     38h
2835 ff        rst     38h
2836 ff        rst     38h
2837 ff        rst     38h
2838 ff        rst     38h
2839 ff        rst     38h
283a ff        rst     38h
283b ff        rst     38h
283c ff        rst     38h
283d ff        rst     38h
283e ff        rst     38h
283f ff        rst     38h
2840 ff        rst     38h
2841 ff        rst     38h
2842 ff        rst     38h
2843 ff        rst     38h
2844 ff        rst     38h
2845 ff        rst     38h
2846 ff        rst     38h
2847 ff        rst     38h
2848 ff        rst     38h
2849 ff        rst     38h
284a ff        rst     38h
284b ff        rst     38h
284c ff        rst     38h
284d ff        rst     38h
284e ff        rst     38h
284f ff        rst     38h
2850 ff        rst     38h
2851 ff        rst     38h
2852 ff        rst     38h
2853 ff        rst     38h
2854 ff        rst     38h
2855 ff        rst     38h
2856 ff        rst     38h
2857 ff        rst     38h
2858 ff        rst     38h
2859 ff        rst     38h
285a ff        rst     38h
285b ff        rst     38h
285c ff        rst     38h
285d ff        rst     38h
285e ff        rst     38h
285f ff        rst     38h
2860 ff        rst     38h
2861 ff        rst     38h
2862 ff        rst     38h
2863 ff        rst     38h
2864 ff        rst     38h
2865 ff        rst     38h
2866 ff        rst     38h
2867 ff        rst     38h
2868 ff        rst     38h
2869 ff        rst     38h
286a ff        rst     38h
286b ff        rst     38h
286c ff        rst     38h
286d ff        rst     38h
286e ff        rst     38h
286f ff        rst     38h
2870 ff        rst     38h
2871 ff        rst     38h
2872 ff        rst     38h
2873 ff        rst     38h
2874 ff        rst     38h
2875 ff        rst     38h
2876 ff        rst     38h
2877 ff        rst     38h
2878 ff        rst     38h
2879 ff        rst     38h
287a ff        rst     38h
287b ff        rst     38h
287c ff        rst     38h
287d ff        rst     38h
287e ff        rst     38h
287f ff        rst     38h
2880 ff        rst     38h
2881 ff        rst     38h
2882 ff        rst     38h
2883 ff        rst     38h
2884 ff        rst     38h
2885 ff        rst     38h
2886 ff        rst     38h
2887 ff        rst     38h
2888 ff        rst     38h
2889 ff        rst     38h
288a ff        rst     38h
288b ff        rst     38h
288c ff        rst     38h
288d ff        rst     38h
288e ff        rst     38h
288f ff        rst     38h
2890 ff        rst     38h
2891 ff        rst     38h
2892 ff        rst     38h
2893 ff        rst     38h
2894 ff        rst     38h
2895 ff        rst     38h
2896 ff        rst     38h
2897 ff        rst     38h
2898 ff        rst     38h
2899 ff        rst     38h
289a ff        rst     38h
289b ff        rst     38h
289c ff        rst     38h
289d ff        rst     38h
289e ff        rst     38h
289f ff        rst     38h
28a0 ff        rst     38h
28a1 ff        rst     38h
28a2 ff        rst     38h
28a3 ff        rst     38h
28a4 ff        rst     38h
28a5 ff        rst     38h
28a6 ff        rst     38h
28a7 ff        rst     38h
28a8 ff        rst     38h
28a9 ff        rst     38h
28aa ff        rst     38h
28ab ff        rst     38h
28ac ff        rst     38h
28ad ff        rst     38h
28ae ff        rst     38h
28af ff        rst     38h
28b0 ff        rst     38h
28b1 ff        rst     38h
28b2 ff        rst     38h
28b3 ff        rst     38h
28b4 ff        rst     38h
28b5 ff        rst     38h
28b6 ff        rst     38h
28b7 ff        rst     38h
28b8 ff        rst     38h
28b9 ff        rst     38h
28ba ff        rst     38h
28bb ff        rst     38h
28bc ff        rst     38h
28bd ff        rst     38h
28be ff        rst     38h
28bf ff        rst     38h
28c0 ff        rst     38h
28c1 ff        rst     38h
28c2 ff        rst     38h
28c3 ff        rst     38h
28c4 ff        rst     38h
28c5 ff        rst     38h
28c6 ff        rst     38h
28c7 ff        rst     38h
28c8 ff        rst     38h
28c9 ff        rst     38h
28ca ff        rst     38h
28cb ff        rst     38h
28cc ff        rst     38h
28cd ff        rst     38h
28ce ff        rst     38h
28cf ff        rst     38h
28d0 ff        rst     38h
28d1 ff        rst     38h
28d2 ff        rst     38h
28d3 ff        rst     38h
28d4 ff        rst     38h
28d5 ff        rst     38h
28d6 ff        rst     38h
28d7 ff        rst     38h
28d8 ff        rst     38h
28d9 ff        rst     38h
28da ff        rst     38h
28db ff        rst     38h
28dc ff        rst     38h
28dd ff        rst     38h
28de ff        rst     38h
28df ff        rst     38h
28e0 ff        rst     38h
28e1 ff        rst     38h
28e2 ff        rst     38h
28e3 ff        rst     38h
28e4 ff        rst     38h
28e5 ff        rst     38h
28e6 ff        rst     38h
28e7 ff        rst     38h
28e8 ff        rst     38h
28e9 ff        rst     38h
28ea ff        rst     38h
28eb ff        rst     38h
28ec ff        rst     38h
28ed ff        rst     38h
28ee ff        rst     38h
28ef ff        rst     38h
28f0 ff        rst     38h
28f1 ff        rst     38h
28f2 ff        rst     38h
28f3 ff        rst     38h
28f4 ff        rst     38h
28f5 ff        rst     38h
28f6 ff        rst     38h
28f7 ff        rst     38h
28f8 ff        rst     38h
28f9 ff        rst     38h
28fa ff        rst     38h
28fb ff        rst     38h
28fc ff        rst     38h
28fd ff        rst     38h
28fe ff        rst     38h
28ff ff        rst     38h
2900 ff        rst     38h
2901 ff        rst     38h
2902 ff        rst     38h
2903 ff        rst     38h
2904 ff        rst     38h
2905 ff        rst     38h
2906 ff        rst     38h
2907 ff        rst     38h
2908 ff        rst     38h
2909 ff        rst     38h
290a ff        rst     38h
290b ff        rst     38h
290c ff        rst     38h
290d ff        rst     38h
290e ff        rst     38h
290f ff        rst     38h
2910 ff        rst     38h
2911 ff        rst     38h
2912 ff        rst     38h
2913 ff        rst     38h
2914 ff        rst     38h
2915 ff        rst     38h
2916 ff        rst     38h
2917 ff        rst     38h
2918 ff        rst     38h
2919 ff        rst     38h
291a ff        rst     38h
291b ff        rst     38h
291c ff        rst     38h
291d ff        rst     38h
291e ff        rst     38h
291f ff        rst     38h
2920 ff        rst     38h
2921 ff        rst     38h
2922 ff        rst     38h
2923 ff        rst     38h
2924 ff        rst     38h
2925 ff        rst     38h
2926 ff        rst     38h
2927 ff        rst     38h
2928 ff        rst     38h
2929 ff        rst     38h
292a ff        rst     38h
292b ff        rst     38h
292c ff        rst     38h
292d ff        rst     38h
292e ff        rst     38h
292f ff        rst     38h
2930 ff        rst     38h
2931 ff        rst     38h
2932 ff        rst     38h
2933 ff        rst     38h
2934 ff        rst     38h
2935 ff        rst     38h
2936 ff        rst     38h
2937 ff        rst     38h
2938 ff        rst     38h
2939 ff        rst     38h
293a ff        rst     38h
293b ff        rst     38h
293c ff        rst     38h
293d ff        rst     38h
293e ff        rst     38h
293f ff        rst     38h
2940 ff        rst     38h
2941 ff        rst     38h
2942 ff        rst     38h
2943 ff        rst     38h
2944 ff        rst     38h
2945 ff        rst     38h
2946 ff        rst     38h
2947 ff        rst     38h
2948 ff        rst     38h
2949 ff        rst     38h
294a ff        rst     38h
294b ff        rst     38h
294c ff        rst     38h
294d ff        rst     38h
294e ff        rst     38h
294f ff        rst     38h
2950 ff        rst     38h
2951 ff        rst     38h
2952 ff        rst     38h
2953 ff        rst     38h
2954 ff        rst     38h
2955 ff        rst     38h
2956 ff        rst     38h
2957 ff        rst     38h
2958 ff        rst     38h
2959 ff        rst     38h
295a ff        rst     38h
295b ff        rst     38h
295c ff        rst     38h
295d ff        rst     38h
295e ff        rst     38h
295f ff        rst     38h
2960 ff        rst     38h
2961 ff        rst     38h
2962 ff        rst     38h
2963 ff        rst     38h
2964 ff        rst     38h
2965 ff        rst     38h
2966 ff        rst     38h
2967 ff        rst     38h
2968 ff        rst     38h
2969 ff        rst     38h
296a ff        rst     38h
296b ff        rst     38h
296c ff        rst     38h
296d ff        rst     38h
296e ff        rst     38h
296f ff        rst     38h
2970 ff        rst     38h
2971 ff        rst     38h
2972 ff        rst     38h
2973 ff        rst     38h
2974 ff        rst     38h
2975 ff        rst     38h
2976 ff        rst     38h
2977 ff        rst     38h
2978 ff        rst     38h
2979 ff        rst     38h
297a ff        rst     38h
297b ff        rst     38h
297c ff        rst     38h
297d ff        rst     38h
297e ff        rst     38h
297f ff        rst     38h
2980 ff        rst     38h
2981 ff        rst     38h
2982 ff        rst     38h
2983 ff        rst     38h
2984 ff        rst     38h
2985 ff        rst     38h
2986 ff        rst     38h
2987 ff        rst     38h
2988 ff        rst     38h
2989 ff        rst     38h
298a ff        rst     38h
298b ff        rst     38h
298c ff        rst     38h
298d ff        rst     38h
298e ff        rst     38h
298f ff        rst     38h
2990 ff        rst     38h
2991 ff        rst     38h
2992 ff        rst     38h
2993 ff        rst     38h
2994 ff        rst     38h
2995 ff        rst     38h
2996 ff        rst     38h
2997 ff        rst     38h
2998 ff        rst     38h
2999 ff        rst     38h
299a ff        rst     38h
299b ff        rst     38h
299c ff        rst     38h
299d ff        rst     38h
299e ff        rst     38h
299f ff        rst     38h
29a0 ff        rst     38h
29a1 ff        rst     38h
29a2 ff        rst     38h
29a3 ff        rst     38h
29a4 ff        rst     38h
29a5 ff        rst     38h
29a6 ff        rst     38h
29a7 ff        rst     38h
29a8 ff        rst     38h
29a9 ff        rst     38h
29aa ff        rst     38h
29ab ff        rst     38h
29ac ff        rst     38h
29ad ff        rst     38h
29ae ff        rst     38h
29af ff        rst     38h
29b0 ff        rst     38h
29b1 ff        rst     38h
29b2 ff        rst     38h
29b3 ff        rst     38h
29b4 ff        rst     38h
29b5 ff        rst     38h
29b6 ff        rst     38h
29b7 ff        rst     38h
29b8 ff        rst     38h
29b9 ff        rst     38h
29ba ff        rst     38h
29bb ff        rst     38h
29bc ff        rst     38h
29bd ff        rst     38h
29be ff        rst     38h
29bf ff        rst     38h
29c0 ff        rst     38h
29c1 ff        rst     38h
29c2 ff        rst     38h
29c3 ff        rst     38h
29c4 ff        rst     38h
29c5 ff        rst     38h
29c6 ff        rst     38h
29c7 ff        rst     38h
29c8 ff        rst     38h
29c9 ff        rst     38h
29ca ff        rst     38h
29cb ff        rst     38h
29cc ff        rst     38h
29cd ff        rst     38h
29ce ff        rst     38h
29cf ff        rst     38h
29d0 ff        rst     38h
29d1 ff        rst     38h
29d2 ff        rst     38h
29d3 ff        rst     38h
29d4 ff        rst     38h
29d5 ff        rst     38h
29d6 ff        rst     38h
29d7 ff        rst     38h
29d8 ff        rst     38h
29d9 ff        rst     38h
29da ff        rst     38h
29db ff        rst     38h
29dc ff        rst     38h
29dd ff        rst     38h
29de ff        rst     38h
29df ff        rst     38h
29e0 ff        rst     38h
29e1 ff        rst     38h
29e2 ff        rst     38h
29e3 ff        rst     38h
29e4 ff        rst     38h
29e5 ff        rst     38h
29e6 ff        rst     38h
29e7 ff        rst     38h
29e8 ff        rst     38h
29e9 ff        rst     38h
29ea ff        rst     38h
29eb ff        rst     38h
29ec ff        rst     38h
29ed ff        rst     38h
29ee ff        rst     38h
29ef ff        rst     38h
29f0 ff        rst     38h
29f1 ff        rst     38h
29f2 ff        rst     38h
29f3 ff        rst     38h
29f4 ff        rst     38h
29f5 ff        rst     38h
29f6 ff        rst     38h
29f7 ff        rst     38h
29f8 ff        rst     38h
29f9 ff        rst     38h
29fa ff        rst     38h
29fb ff        rst     38h
29fc ff        rst     38h
29fd ff        rst     38h
29fe ff        rst     38h
29ff ff        rst     38h
2a00 ff        rst     38h
2a01 ff        rst     38h
2a02 ff        rst     38h
2a03 ff        rst     38h
2a04 ff        rst     38h
2a05 ff        rst     38h
2a06 ff        rst     38h
2a07 ff        rst     38h
2a08 ff        rst     38h
2a09 ff        rst     38h
2a0a ff        rst     38h
2a0b ff        rst     38h
2a0c ff        rst     38h
2a0d ff        rst     38h
2a0e ff        rst     38h
2a0f ff        rst     38h
2a10 ff        rst     38h
2a11 ff        rst     38h
2a12 ff        rst     38h
2a13 ff        rst     38h
2a14 ff        rst     38h
2a15 ff        rst     38h
2a16 ff        rst     38h
2a17 ff        rst     38h
2a18 ff        rst     38h
2a19 ff        rst     38h
2a1a ff        rst     38h
2a1b ff        rst     38h
2a1c ff        rst     38h
2a1d ff        rst     38h
2a1e ff        rst     38h
2a1f ff        rst     38h
2a20 ff        rst     38h
2a21 ff        rst     38h
2a22 ff        rst     38h
2a23 ff        rst     38h
2a24 ff        rst     38h
2a25 ff        rst     38h
2a26 ff        rst     38h
2a27 ff        rst     38h
2a28 ff        rst     38h
2a29 ff        rst     38h
2a2a ff        rst     38h
2a2b ff        rst     38h
2a2c ff        rst     38h
2a2d ff        rst     38h
2a2e ff        rst     38h
2a2f ff        rst     38h
2a30 ff        rst     38h
2a31 ff        rst     38h
2a32 ff        rst     38h
2a33 ff        rst     38h
2a34 ff        rst     38h
2a35 ff        rst     38h
2a36 ff        rst     38h
2a37 ff        rst     38h
2a38 ff        rst     38h
2a39 ff        rst     38h
2a3a ff        rst     38h
2a3b ff        rst     38h
2a3c ff        rst     38h
2a3d ff        rst     38h
2a3e ff        rst     38h
2a3f ff        rst     38h
2a40 ff        rst     38h
2a41 ff        rst     38h
2a42 ff        rst     38h
2a43 ff        rst     38h
2a44 ff        rst     38h
2a45 ff        rst     38h
2a46 ff        rst     38h
2a47 ff        rst     38h
2a48 ff        rst     38h
2a49 ff        rst     38h
2a4a ff        rst     38h
2a4b ff        rst     38h
2a4c ff        rst     38h
2a4d ff        rst     38h
2a4e ff        rst     38h
2a4f ff        rst     38h
2a50 ff        rst     38h
2a51 ff        rst     38h
2a52 ff        rst     38h
2a53 ff        rst     38h
2a54 ff        rst     38h
2a55 ff        rst     38h
2a56 ff        rst     38h
2a57 ff        rst     38h
2a58 ff        rst     38h
2a59 ff        rst     38h
2a5a ff        rst     38h
2a5b ff        rst     38h
2a5c ff        rst     38h
2a5d ff        rst     38h
2a5e ff        rst     38h
2a5f ff        rst     38h
2a60 ff        rst     38h
2a61 ff        rst     38h
2a62 ff        rst     38h
2a63 ff        rst     38h
2a64 ff        rst     38h
2a65 ff        rst     38h
2a66 ff        rst     38h
2a67 ff        rst     38h
2a68 ff        rst     38h
2a69 ff        rst     38h
2a6a ff        rst     38h
2a6b ff        rst     38h
2a6c ff        rst     38h
2a6d ff        rst     38h
2a6e ff        rst     38h
2a6f ff        rst     38h
2a70 ff        rst     38h
2a71 ff        rst     38h
2a72 ff        rst     38h
2a73 ff        rst     38h
2a74 ff        rst     38h
2a75 ff        rst     38h
2a76 ff        rst     38h
2a77 ff        rst     38h
2a78 ff        rst     38h
2a79 ff        rst     38h
2a7a ff        rst     38h
2a7b ff        rst     38h
2a7c ff        rst     38h
2a7d ff        rst     38h
2a7e ff        rst     38h
2a7f ff        rst     38h
2a80 ff        rst     38h
2a81 ff        rst     38h
2a82 ff        rst     38h
2a83 ff        rst     38h
2a84 ff        rst     38h
2a85 ff        rst     38h
2a86 ff        rst     38h
2a87 ff        rst     38h
2a88 ff        rst     38h
2a89 ff        rst     38h
2a8a ff        rst     38h
2a8b ff        rst     38h
2a8c ff        rst     38h
2a8d ff        rst     38h
2a8e ff        rst     38h
2a8f ff        rst     38h
2a90 ff        rst     38h
2a91 ff        rst     38h
2a92 ff        rst     38h
2a93 ff        rst     38h
2a94 ff        rst     38h
2a95 ff        rst     38h
2a96 ff        rst     38h
2a97 ff        rst     38h
2a98 ff        rst     38h
2a99 ff        rst     38h
2a9a ff        rst     38h
2a9b ff        rst     38h
2a9c ff        rst     38h
2a9d ff        rst     38h
2a9e ff        rst     38h
2a9f ff        rst     38h
2aa0 ff        rst     38h
2aa1 ff        rst     38h
2aa2 ff        rst     38h
2aa3 ff        rst     38h
2aa4 ff        rst     38h
2aa5 ff        rst     38h
2aa6 ff        rst     38h
2aa7 ff        rst     38h
2aa8 ff        rst     38h
2aa9 ff        rst     38h
2aaa ff        rst     38h
2aab ff        rst     38h
2aac ff        rst     38h
2aad ff        rst     38h
2aae ff        rst     38h
2aaf ff        rst     38h
2ab0 ff        rst     38h
2ab1 ff        rst     38h
2ab2 ff        rst     38h
2ab3 ff        rst     38h
2ab4 ff        rst     38h
2ab5 ff        rst     38h
2ab6 ff        rst     38h
2ab7 ff        rst     38h
2ab8 ff        rst     38h
2ab9 ff        rst     38h
2aba ff        rst     38h
2abb ff        rst     38h
2abc ff        rst     38h
2abd ff        rst     38h
2abe ff        rst     38h
2abf ff        rst     38h
2ac0 ff        rst     38h
2ac1 ff        rst     38h
2ac2 ff        rst     38h
2ac3 ff        rst     38h
2ac4 ff        rst     38h
2ac5 ff        rst     38h
2ac6 ff        rst     38h
2ac7 ff        rst     38h
2ac8 ff        rst     38h
2ac9 ff        rst     38h
2aca ff        rst     38h
2acb ff        rst     38h
2acc ff        rst     38h
2acd ff        rst     38h
2ace ff        rst     38h
2acf ff        rst     38h
2ad0 ff        rst     38h
2ad1 ff        rst     38h
2ad2 ff        rst     38h
2ad3 ff        rst     38h
2ad4 ff        rst     38h
2ad5 ff        rst     38h
2ad6 ff        rst     38h
2ad7 ff        rst     38h
2ad8 ff        rst     38h
2ad9 ff        rst     38h
2ada ff        rst     38h
2adb ff        rst     38h
2adc ff        rst     38h
2add ff        rst     38h
2ade ff        rst     38h
2adf ff        rst     38h
2ae0 ff        rst     38h
2ae1 ff        rst     38h
2ae2 ff        rst     38h
2ae3 ff        rst     38h
2ae4 ff        rst     38h
2ae5 ff        rst     38h
2ae6 ff        rst     38h
2ae7 ff        rst     38h
2ae8 ff        rst     38h
2ae9 ff        rst     38h
2aea ff        rst     38h
2aeb ff        rst     38h
2aec ff        rst     38h
2aed ff        rst     38h
2aee ff        rst     38h
2aef ff        rst     38h
2af0 ff        rst     38h
2af1 ff        rst     38h
2af2 ff        rst     38h
2af3 ff        rst     38h
2af4 ff        rst     38h
2af5 ff        rst     38h
2af6 ff        rst     38h
2af7 ff        rst     38h
2af8 ff        rst     38h
2af9 ff        rst     38h
2afa ff        rst     38h
2afb ff        rst     38h
2afc ff        rst     38h
2afd ff        rst     38h
2afe ff        rst     38h
2aff ff        rst     38h
2b00 ff        rst     38h
2b01 ff        rst     38h
2b02 ff        rst     38h
2b03 ff        rst     38h
2b04 ff        rst     38h
2b05 ff        rst     38h
2b06 ff        rst     38h
2b07 ff        rst     38h
2b08 ff        rst     38h
2b09 ff        rst     38h
2b0a ff        rst     38h
2b0b ff        rst     38h
2b0c ff        rst     38h
2b0d ff        rst     38h
2b0e ff        rst     38h
2b0f ff        rst     38h
2b10 ff        rst     38h
2b11 ff        rst     38h
2b12 ff        rst     38h
2b13 ff        rst     38h
2b14 ff        rst     38h
2b15 ff        rst     38h
2b16 ff        rst     38h
2b17 ff        rst     38h
2b18 ff        rst     38h
2b19 ff        rst     38h
2b1a ff        rst     38h
2b1b ff        rst     38h
2b1c ff        rst     38h
2b1d ff        rst     38h
2b1e ff        rst     38h
2b1f ff        rst     38h
2b20 ff        rst     38h
2b21 ff        rst     38h
2b22 ff        rst     38h
2b23 ff        rst     38h
2b24 ff        rst     38h
2b25 ff        rst     38h
2b26 ff        rst     38h
2b27 ff        rst     38h
2b28 ff        rst     38h
2b29 ff        rst     38h
2b2a ff        rst     38h
2b2b ff        rst     38h
2b2c ff        rst     38h
2b2d ff        rst     38h
2b2e ff        rst     38h
2b2f ff        rst     38h
2b30 ff        rst     38h
2b31 ff        rst     38h
2b32 ff        rst     38h
2b33 ff        rst     38h
2b34 ff        rst     38h
2b35 ff        rst     38h
2b36 ff        rst     38h
2b37 ff        rst     38h
2b38 ff        rst     38h
2b39 ff        rst     38h
2b3a ff        rst     38h
2b3b ff        rst     38h
2b3c ff        rst     38h
2b3d ff        rst     38h
2b3e ff        rst     38h
2b3f ff        rst     38h
2b40 ff        rst     38h
2b41 ff        rst     38h
2b42 ff        rst     38h
2b43 ff        rst     38h
2b44 ff        rst     38h
2b45 ff        rst     38h
2b46 ff        rst     38h
2b47 ff        rst     38h
2b48 ff        rst     38h
2b49 ff        rst     38h
2b4a ff        rst     38h
2b4b ff        rst     38h
2b4c ff        rst     38h
2b4d ff        rst     38h
2b4e ff        rst     38h
2b4f ff        rst     38h
2b50 ff        rst     38h
2b51 ff        rst     38h
2b52 ff        rst     38h
2b53 ff        rst     38h
2b54 ff        rst     38h
2b55 ff        rst     38h
2b56 ff        rst     38h
2b57 ff        rst     38h
2b58 ff        rst     38h
2b59 ff        rst     38h
2b5a ff        rst     38h
2b5b ff        rst     38h
2b5c ff        rst     38h
2b5d ff        rst     38h
2b5e ff        rst     38h
2b5f ff        rst     38h
2b60 ff        rst     38h
2b61 ff        rst     38h
2b62 ff        rst     38h
2b63 ff        rst     38h
2b64 ff        rst     38h
2b65 ff        rst     38h
2b66 ff        rst     38h
2b67 ff        rst     38h
2b68 ff        rst     38h
2b69 ff        rst     38h
2b6a ff        rst     38h
2b6b ff        rst     38h
2b6c ff        rst     38h
2b6d ff        rst     38h
2b6e ff        rst     38h
2b6f ff        rst     38h
2b70 ff        rst     38h
2b71 ff        rst     38h
2b72 ff        rst     38h
2b73 ff        rst     38h
2b74 ff        rst     38h
2b75 ff        rst     38h
2b76 ff        rst     38h
2b77 ff        rst     38h
2b78 ff        rst     38h
2b79 ff        rst     38h
2b7a ff        rst     38h
2b7b ff        rst     38h
2b7c ff        rst     38h
2b7d ff        rst     38h
2b7e ff        rst     38h
2b7f ff        rst     38h
2b80 ff        rst     38h
2b81 ff        rst     38h
2b82 ff        rst     38h
2b83 ff        rst     38h
2b84 ff        rst     38h
2b85 ff        rst     38h
2b86 ff        rst     38h
2b87 ff        rst     38h
2b88 ff        rst     38h
2b89 ff        rst     38h
2b8a ff        rst     38h
2b8b ff        rst     38h
2b8c ff        rst     38h
2b8d ff        rst     38h
2b8e ff        rst     38h
2b8f ff        rst     38h
2b90 ff        rst     38h
2b91 ff        rst     38h
2b92 ff        rst     38h
2b93 ff        rst     38h
2b94 ff        rst     38h
2b95 ff        rst     38h
2b96 ff        rst     38h
2b97 ff        rst     38h
2b98 ff        rst     38h
2b99 ff        rst     38h
2b9a ff        rst     38h
2b9b ff        rst     38h
2b9c ff        rst     38h
2b9d ff        rst     38h
2b9e ff        rst     38h
2b9f ff        rst     38h
2ba0 ff        rst     38h
2ba1 ff        rst     38h
2ba2 ff        rst     38h
2ba3 ff        rst     38h
2ba4 ff        rst     38h
2ba5 ff        rst     38h
2ba6 ff        rst     38h
2ba7 ff        rst     38h
2ba8 ff        rst     38h
2ba9 ff        rst     38h
2baa ff        rst     38h
2bab ff        rst     38h
2bac ff        rst     38h
2bad ff        rst     38h
2bae ff        rst     38h
2baf ff        rst     38h
2bb0 ff        rst     38h
2bb1 ff        rst     38h
2bb2 ff        rst     38h
2bb3 ff        rst     38h
2bb4 ff        rst     38h
2bb5 ff        rst     38h
2bb6 ff        rst     38h
2bb7 ff        rst     38h
2bb8 ff        rst     38h
2bb9 ff        rst     38h
2bba ff        rst     38h
2bbb ff        rst     38h
2bbc ff        rst     38h
2bbd ff        rst     38h
2bbe ff        rst     38h
2bbf ff        rst     38h
2bc0 ff        rst     38h
2bc1 ff        rst     38h
2bc2 ff        rst     38h
2bc3 ff        rst     38h
2bc4 ff        rst     38h
2bc5 ff        rst     38h
2bc6 ff        rst     38h
2bc7 ff        rst     38h
2bc8 ff        rst     38h
2bc9 ff        rst     38h
2bca ff        rst     38h
2bcb ff        rst     38h
2bcc ff        rst     38h
2bcd ff        rst     38h
2bce ff        rst     38h
2bcf ff        rst     38h
2bd0 ff        rst     38h
2bd1 ff        rst     38h
2bd2 ff        rst     38h
2bd3 ff        rst     38h
2bd4 ff        rst     38h
2bd5 ff        rst     38h
2bd6 ff        rst     38h
2bd7 ff        rst     38h
2bd8 ff        rst     38h
2bd9 ff        rst     38h
2bda ff        rst     38h
2bdb ff        rst     38h
2bdc ff        rst     38h
2bdd ff        rst     38h
2bde ff        rst     38h
2bdf ff        rst     38h
2be0 ff        rst     38h
2be1 ff        rst     38h
2be2 ff        rst     38h
2be3 ff        rst     38h
2be4 ff        rst     38h
2be5 ff        rst     38h
2be6 ff        rst     38h
2be7 ff        rst     38h
2be8 ff        rst     38h
2be9 ff        rst     38h
2bea ff        rst     38h
2beb ff        rst     38h
2bec ff        rst     38h
2bed ff        rst     38h
2bee ff        rst     38h
2bef ff        rst     38h
2bf0 ff        rst     38h
2bf1 ff        rst     38h
2bf2 ff        rst     38h
2bf3 ff        rst     38h
2bf4 ff        rst     38h
2bf5 ff        rst     38h
2bf6 ff        rst     38h
2bf7 ff        rst     38h
2bf8 ff        rst     38h
2bf9 ff        rst     38h
2bfa ff        rst     38h
2bfb ff        rst     38h
2bfc ff        rst     38h
2bfd ff        rst     38h
2bfe ff        rst     38h
2bff ff        rst     38h
2c00 ff        rst     38h
2c01 ff        rst     38h
2c02 ff        rst     38h
2c03 ff        rst     38h
2c04 ff        rst     38h
2c05 ff        rst     38h
2c06 ff        rst     38h
2c07 ff        rst     38h
2c08 ff        rst     38h
2c09 ff        rst     38h
2c0a ff        rst     38h
2c0b ff        rst     38h
2c0c ff        rst     38h
2c0d ff        rst     38h
2c0e ff        rst     38h
2c0f ff        rst     38h
2c10 ff        rst     38h
2c11 ff        rst     38h
2c12 ff        rst     38h
2c13 ff        rst     38h
2c14 ff        rst     38h
2c15 ff        rst     38h
2c16 ff        rst     38h
2c17 ff        rst     38h
2c18 ff        rst     38h
2c19 ff        rst     38h
2c1a ff        rst     38h
2c1b ff        rst     38h
2c1c ff        rst     38h
2c1d ff        rst     38h
2c1e ff        rst     38h
2c1f ff        rst     38h
2c20 ff        rst     38h
2c21 ff        rst     38h
2c22 ff        rst     38h
2c23 ff        rst     38h
2c24 ff        rst     38h
2c25 ff        rst     38h
2c26 ff        rst     38h
2c27 ff        rst     38h
2c28 ff        rst     38h
2c29 ff        rst     38h
2c2a ff        rst     38h
2c2b ff        rst     38h
2c2c ff        rst     38h
2c2d ff        rst     38h
2c2e ff        rst     38h
2c2f ff        rst     38h
2c30 ff        rst     38h
2c31 ff        rst     38h
2c32 ff        rst     38h
2c33 ff        rst     38h
2c34 ff        rst     38h
2c35 ff        rst     38h
2c36 ff        rst     38h
2c37 ff        rst     38h
2c38 ff        rst     38h
2c39 ff        rst     38h
2c3a ff        rst     38h
2c3b ff        rst     38h
2c3c ff        rst     38h
2c3d ff        rst     38h
2c3e ff        rst     38h
2c3f ff        rst     38h
2c40 ff        rst     38h
2c41 ff        rst     38h
2c42 ff        rst     38h
2c43 ff        rst     38h
2c44 ff        rst     38h
2c45 ff        rst     38h
2c46 ff        rst     38h
2c47 ff        rst     38h
2c48 ff        rst     38h
2c49 ff        rst     38h
2c4a ff        rst     38h
2c4b ff        rst     38h
2c4c ff        rst     38h
2c4d ff        rst     38h
2c4e ff        rst     38h
2c4f ff        rst     38h
2c50 ff        rst     38h
2c51 ff        rst     38h
2c52 ff        rst     38h
2c53 ff        rst     38h
2c54 ff        rst     38h
2c55 ff        rst     38h
2c56 ff        rst     38h
2c57 ff        rst     38h
2c58 ff        rst     38h
2c59 ff        rst     38h
2c5a ff        rst     38h
2c5b ff        rst     38h
2c5c ff        rst     38h
2c5d ff        rst     38h
2c5e ff        rst     38h
2c5f ff        rst     38h
2c60 ff        rst     38h
2c61 ff        rst     38h
2c62 ff        rst     38h
2c63 ff        rst     38h
2c64 ff        rst     38h
2c65 ff        rst     38h
2c66 ff        rst     38h
2c67 ff        rst     38h
2c68 ff        rst     38h
2c69 ff        rst     38h
2c6a ff        rst     38h
2c6b ff        rst     38h
2c6c ff        rst     38h
2c6d ff        rst     38h
2c6e ff        rst     38h
2c6f ff        rst     38h
2c70 ff        rst     38h
2c71 ff        rst     38h
2c72 ff        rst     38h
2c73 ff        rst     38h
2c74 ff        rst     38h
2c75 ff        rst     38h
2c76 ff        rst     38h
2c77 ff        rst     38h
2c78 ff        rst     38h
2c79 ff        rst     38h
2c7a ff        rst     38h
2c7b ff        rst     38h
2c7c ff        rst     38h
2c7d ff        rst     38h
2c7e ff        rst     38h
2c7f ff        rst     38h
2c80 ff        rst     38h
2c81 ff        rst     38h
2c82 ff        rst     38h
2c83 ff        rst     38h
2c84 ff        rst     38h
2c85 ff        rst     38h
2c86 ff        rst     38h
2c87 ff        rst     38h
2c88 ff        rst     38h
2c89 ff        rst     38h
2c8a ff        rst     38h
2c8b ff        rst     38h
2c8c ff        rst     38h
2c8d ff        rst     38h
2c8e ff        rst     38h
2c8f ff        rst     38h
2c90 ff        rst     38h
2c91 ff        rst     38h
2c92 ff        rst     38h
2c93 ff        rst     38h
2c94 ff        rst     38h
2c95 ff        rst     38h
2c96 ff        rst     38h
2c97 ff        rst     38h
2c98 ff        rst     38h
2c99 ff        rst     38h
2c9a ff        rst     38h
2c9b ff        rst     38h
2c9c ff        rst     38h
2c9d ff        rst     38h
2c9e ff        rst     38h
2c9f ff        rst     38h
2ca0 ff        rst     38h
2ca1 ff        rst     38h
2ca2 ff        rst     38h
2ca3 ff        rst     38h
2ca4 ff        rst     38h
2ca5 ff        rst     38h
2ca6 ff        rst     38h
2ca7 ff        rst     38h
2ca8 ff        rst     38h
2ca9 ff        rst     38h
2caa ff        rst     38h
2cab ff        rst     38h
2cac ff        rst     38h
2cad ff        rst     38h
2cae ff        rst     38h
2caf ff        rst     38h
2cb0 ff        rst     38h
2cb1 ff        rst     38h
2cb2 ff        rst     38h
2cb3 ff        rst     38h
2cb4 ff        rst     38h
2cb5 ff        rst     38h
2cb6 ff        rst     38h
2cb7 ff        rst     38h
2cb8 ff        rst     38h
2cb9 ff        rst     38h
2cba ff        rst     38h
2cbb ff        rst     38h
2cbc ff        rst     38h
2cbd ff        rst     38h
2cbe ff        rst     38h
2cbf ff        rst     38h
2cc0 ff        rst     38h
2cc1 ff        rst     38h
2cc2 ff        rst     38h
2cc3 ff        rst     38h
2cc4 ff        rst     38h
2cc5 ff        rst     38h
2cc6 ff        rst     38h
2cc7 ff        rst     38h
2cc8 ff        rst     38h
2cc9 ff        rst     38h
2cca ff        rst     38h
2ccb ff        rst     38h
2ccc ff        rst     38h
2ccd ff        rst     38h
2cce ff        rst     38h
2ccf ff        rst     38h
2cd0 ff        rst     38h
2cd1 ff        rst     38h
2cd2 ff        rst     38h
2cd3 ff        rst     38h
2cd4 ff        rst     38h
2cd5 ff        rst     38h
2cd6 ff        rst     38h
2cd7 ff        rst     38h
2cd8 ff        rst     38h
2cd9 ff        rst     38h
2cda ff        rst     38h
2cdb ff        rst     38h
2cdc ff        rst     38h
2cdd ff        rst     38h
2cde ff        rst     38h
2cdf ff        rst     38h
2ce0 ff        rst     38h
2ce1 ff        rst     38h
2ce2 ff        rst     38h
2ce3 ff        rst     38h
2ce4 ff        rst     38h
2ce5 ff        rst     38h
2ce6 ff        rst     38h
2ce7 ff        rst     38h
2ce8 ff        rst     38h
2ce9 ff        rst     38h
2cea ff        rst     38h
2ceb ff        rst     38h
2cec ff        rst     38h
2ced ff        rst     38h
2cee ff        rst     38h
2cef ff        rst     38h
2cf0 ff        rst     38h
2cf1 ff        rst     38h
2cf2 ff        rst     38h
2cf3 ff        rst     38h
2cf4 ff        rst     38h
2cf5 ff        rst     38h
2cf6 ff        rst     38h
2cf7 ff        rst     38h
2cf8 ff        rst     38h
2cf9 ff        rst     38h
2cfa ff        rst     38h
2cfb ff        rst     38h
2cfc ff        rst     38h
2cfd ff        rst     38h
2cfe ff        rst     38h
2cff ff        rst     38h
2d00 ff        rst     38h
2d01 ff        rst     38h
2d02 ff        rst     38h
2d03 ff        rst     38h
2d04 ff        rst     38h
2d05 ff        rst     38h
2d06 ff        rst     38h
2d07 ff        rst     38h
2d08 ff        rst     38h
2d09 ff        rst     38h
2d0a ff        rst     38h
2d0b ff        rst     38h
2d0c ff        rst     38h
2d0d ff        rst     38h
2d0e ff        rst     38h
2d0f ff        rst     38h
2d10 ff        rst     38h
2d11 ff        rst     38h
2d12 ff        rst     38h
2d13 ff        rst     38h
2d14 ff        rst     38h
2d15 ff        rst     38h
2d16 ff        rst     38h
2d17 ff        rst     38h
2d18 ff        rst     38h
2d19 ff        rst     38h
2d1a ff        rst     38h
2d1b ff        rst     38h
2d1c ff        rst     38h
2d1d ff        rst     38h
2d1e ff        rst     38h
2d1f ff        rst     38h
2d20 ff        rst     38h
2d21 ff        rst     38h
2d22 ff        rst     38h
2d23 ff        rst     38h
2d24 ff        rst     38h
2d25 ff        rst     38h
2d26 ff        rst     38h
2d27 ff        rst     38h
2d28 ff        rst     38h
2d29 ff        rst     38h
2d2a ff        rst     38h
2d2b ff        rst     38h
2d2c ff        rst     38h
2d2d ff        rst     38h
2d2e ff        rst     38h
2d2f ff        rst     38h
2d30 ff        rst     38h
2d31 ff        rst     38h
2d32 ff        rst     38h
2d33 ff        rst     38h
2d34 ff        rst     38h
2d35 ff        rst     38h
2d36 ff        rst     38h
2d37 ff        rst     38h
2d38 ff        rst     38h
2d39 ff        rst     38h
2d3a ff        rst     38h
2d3b ff        rst     38h
2d3c ff        rst     38h
2d3d ff        rst     38h
2d3e ff        rst     38h
2d3f ff        rst     38h
2d40 ff        rst     38h
2d41 ff        rst     38h
2d42 ff        rst     38h
2d43 ff        rst     38h
2d44 ff        rst     38h
2d45 ff        rst     38h
2d46 ff        rst     38h
2d47 ff        rst     38h
2d48 ff        rst     38h
2d49 ff        rst     38h
2d4a ff        rst     38h
2d4b ff        rst     38h
2d4c ff        rst     38h
2d4d ff        rst     38h
2d4e ff        rst     38h
2d4f ff        rst     38h
2d50 ff        rst     38h
2d51 ff        rst     38h
2d52 ff        rst     38h
2d53 ff        rst     38h
2d54 ff        rst     38h
2d55 ff        rst     38h
2d56 ff        rst     38h
2d57 ff        rst     38h
2d58 ff        rst     38h
2d59 ff        rst     38h
2d5a ff        rst     38h
2d5b ff        rst     38h
2d5c ff        rst     38h
2d5d ff        rst     38h
2d5e ff        rst     38h
2d5f ff        rst     38h
2d60 ff        rst     38h
2d61 ff        rst     38h
2d62 ff        rst     38h
2d63 ff        rst     38h
2d64 ff        rst     38h
2d65 ff        rst     38h
2d66 ff        rst     38h
2d67 ff        rst     38h
2d68 ff        rst     38h
2d69 ff        rst     38h
2d6a ff        rst     38h
2d6b ff        rst     38h
2d6c ff        rst     38h
2d6d ff        rst     38h
2d6e ff        rst     38h
2d6f ff        rst     38h
2d70 ff        rst     38h
2d71 ff        rst     38h
2d72 ff        rst     38h
2d73 ff        rst     38h
2d74 ff        rst     38h
2d75 ff        rst     38h
2d76 ff        rst     38h
2d77 ff        rst     38h
2d78 ff        rst     38h
2d79 ff        rst     38h
2d7a ff        rst     38h
2d7b ff        rst     38h
2d7c ff        rst     38h
2d7d ff        rst     38h
2d7e ff        rst     38h
2d7f ff        rst     38h
2d80 ff        rst     38h
2d81 ff        rst     38h
2d82 ff        rst     38h
2d83 ff        rst     38h
2d84 ff        rst     38h
2d85 ff        rst     38h
2d86 ff        rst     38h
2d87 ff        rst     38h
2d88 ff        rst     38h
2d89 ff        rst     38h
2d8a ff        rst     38h
2d8b ff        rst     38h
2d8c ff        rst     38h
2d8d ff        rst     38h
2d8e ff        rst     38h
2d8f ff        rst     38h
2d90 ff        rst     38h
2d91 ff        rst     38h
2d92 ff        rst     38h
2d93 ff        rst     38h
2d94 ff        rst     38h
2d95 ff        rst     38h
2d96 ff        rst     38h
2d97 ff        rst     38h
2d98 ff        rst     38h
2d99 ff        rst     38h
2d9a ff        rst     38h
2d9b ff        rst     38h
2d9c ff        rst     38h
2d9d ff        rst     38h
2d9e ff        rst     38h
2d9f ff        rst     38h
2da0 ff        rst     38h
2da1 ff        rst     38h
2da2 ff        rst     38h
2da3 ff        rst     38h
2da4 ff        rst     38h
2da5 ff        rst     38h
2da6 ff        rst     38h
2da7 ff        rst     38h
2da8 ff        rst     38h
2da9 ff        rst     38h
2daa ff        rst     38h
2dab ff        rst     38h
2dac ff        rst     38h
2dad ff        rst     38h
2dae ff        rst     38h
2daf ff        rst     38h
2db0 ff        rst     38h
2db1 ff        rst     38h
2db2 ff        rst     38h
2db3 ff        rst     38h
2db4 ff        rst     38h
2db5 ff        rst     38h
2db6 ff        rst     38h
2db7 ff        rst     38h
2db8 ff        rst     38h
2db9 ff        rst     38h
2dba ff        rst     38h
2dbb ff        rst     38h
2dbc ff        rst     38h
2dbd ff        rst     38h
2dbe ff        rst     38h
2dbf ff        rst     38h
2dc0 ff        rst     38h
2dc1 ff        rst     38h
2dc2 ff        rst     38h
2dc3 ff        rst     38h
2dc4 ff        rst     38h
2dc5 ff        rst     38h
2dc6 ff        rst     38h
2dc7 ff        rst     38h
2dc8 ff        rst     38h
2dc9 ff        rst     38h
2dca ff        rst     38h
2dcb ff        rst     38h
2dcc ff        rst     38h
2dcd ff        rst     38h
2dce ff        rst     38h
2dcf ff        rst     38h
2dd0 ff        rst     38h
2dd1 ff        rst     38h
2dd2 ff        rst     38h
2dd3 ff        rst     38h
2dd4 ff        rst     38h
2dd5 ff        rst     38h
2dd6 ff        rst     38h
2dd7 ff        rst     38h
2dd8 ff        rst     38h
2dd9 ff        rst     38h
2dda ff        rst     38h
2ddb ff        rst     38h
2ddc ff        rst     38h
2ddd ff        rst     38h
2dde ff        rst     38h
2ddf ff        rst     38h
2de0 ff        rst     38h
2de1 ff        rst     38h
2de2 ff        rst     38h
2de3 ff        rst     38h
2de4 ff        rst     38h
2de5 ff        rst     38h
2de6 ff        rst     38h
2de7 ff        rst     38h
2de8 ff        rst     38h
2de9 ff        rst     38h
2dea ff        rst     38h
2deb ff        rst     38h
2dec ff        rst     38h
2ded ff        rst     38h
2dee ff        rst     38h
2def ff        rst     38h
2df0 ff        rst     38h
2df1 ff        rst     38h
2df2 ff        rst     38h
2df3 ff        rst     38h
2df4 ff        rst     38h
2df5 ff        rst     38h
2df6 ff        rst     38h
2df7 ff        rst     38h
2df8 ff        rst     38h
2df9 ff        rst     38h
2dfa ff        rst     38h
2dfb ff        rst     38h
2dfc ff        rst     38h
2dfd ff        rst     38h
2dfe ff        rst     38h
2dff ff        rst     38h
2e00 ff        rst     38h
2e01 ff        rst     38h
2e02 ff        rst     38h
2e03 ff        rst     38h
2e04 ff        rst     38h
2e05 ff        rst     38h
2e06 ff        rst     38h
2e07 ff        rst     38h
2e08 ff        rst     38h
2e09 ff        rst     38h
2e0a ff        rst     38h
2e0b ff        rst     38h
2e0c ff        rst     38h
2e0d ff        rst     38h
2e0e ff        rst     38h
2e0f ff        rst     38h
2e10 ff        rst     38h
2e11 ff        rst     38h
2e12 ff        rst     38h
2e13 ff        rst     38h
2e14 ff        rst     38h
2e15 ff        rst     38h
2e16 ff        rst     38h
2e17 ff        rst     38h
2e18 ff        rst     38h
2e19 ff        rst     38h
2e1a ff        rst     38h
2e1b ff        rst     38h
2e1c ff        rst     38h
2e1d ff        rst     38h
2e1e ff        rst     38h
2e1f ff        rst     38h
2e20 ff        rst     38h
2e21 ff        rst     38h
2e22 ff        rst     38h
2e23 ff        rst     38h
2e24 ff        rst     38h
2e25 ff        rst     38h
2e26 ff        rst     38h
2e27 ff        rst     38h
2e28 ff        rst     38h
2e29 ff        rst     38h
2e2a ff        rst     38h
2e2b ff        rst     38h
2e2c ff        rst     38h
2e2d ff        rst     38h
2e2e ff        rst     38h
2e2f ff        rst     38h
2e30 ff        rst     38h
2e31 ff        rst     38h
2e32 ff        rst     38h
2e33 ff        rst     38h
2e34 ff        rst     38h
2e35 ff        rst     38h
2e36 ff        rst     38h
2e37 ff        rst     38h
2e38 ff        rst     38h
2e39 ff        rst     38h
2e3a ff        rst     38h
2e3b ff        rst     38h
2e3c ff        rst     38h
2e3d ff        rst     38h
2e3e ff        rst     38h
2e3f ff        rst     38h
2e40 ff        rst     38h
2e41 ff        rst     38h
2e42 ff        rst     38h
2e43 ff        rst     38h
2e44 ff        rst     38h
2e45 ff        rst     38h
2e46 ff        rst     38h
2e47 ff        rst     38h
2e48 ff        rst     38h
2e49 ff        rst     38h
2e4a ff        rst     38h
2e4b ff        rst     38h
2e4c ff        rst     38h
2e4d ff        rst     38h
2e4e ff        rst     38h
2e4f ff        rst     38h
2e50 ff        rst     38h
2e51 ff        rst     38h
2e52 ff        rst     38h
2e53 ff        rst     38h
2e54 ff        rst     38h
2e55 ff        rst     38h
2e56 ff        rst     38h
2e57 ff        rst     38h
2e58 ff        rst     38h
2e59 ff        rst     38h
2e5a ff        rst     38h
2e5b ff        rst     38h
2e5c ff        rst     38h
2e5d ff        rst     38h
2e5e ff        rst     38h
2e5f ff        rst     38h
2e60 ff        rst     38h
2e61 ff        rst     38h
2e62 ff        rst     38h
2e63 ff        rst     38h
2e64 ff        rst     38h
2e65 ff        rst     38h
2e66 ff        rst     38h
2e67 ff        rst     38h
2e68 ff        rst     38h
2e69 ff        rst     38h
2e6a ff        rst     38h
2e6b ff        rst     38h
2e6c ff        rst     38h
2e6d ff        rst     38h
2e6e ff        rst     38h
2e6f ff        rst     38h
2e70 ff        rst     38h
2e71 ff        rst     38h
2e72 ff        rst     38h
2e73 ff        rst     38h
2e74 ff        rst     38h
2e75 ff        rst     38h
2e76 ff        rst     38h
2e77 ff        rst     38h
2e78 ff        rst     38h
2e79 ff        rst     38h
2e7a ff        rst     38h
2e7b ff        rst     38h
2e7c ff        rst     38h
2e7d ff        rst     38h
2e7e ff        rst     38h
2e7f ff        rst     38h
2e80 ff        rst     38h
2e81 ff        rst     38h
2e82 ff        rst     38h
2e83 ff        rst     38h
2e84 ff        rst     38h
2e85 ff        rst     38h
2e86 ff        rst     38h
2e87 ff        rst     38h
2e88 ff        rst     38h
2e89 ff        rst     38h
2e8a ff        rst     38h
2e8b ff        rst     38h
2e8c ff        rst     38h
2e8d ff        rst     38h
2e8e ff        rst     38h
2e8f ff        rst     38h
2e90 ff        rst     38h
2e91 ff        rst     38h
2e92 ff        rst     38h
2e93 ff        rst     38h
2e94 ff        rst     38h
2e95 ff        rst     38h
2e96 ff        rst     38h
2e97 ff        rst     38h
2e98 ff        rst     38h
2e99 ff        rst     38h
2e9a ff        rst     38h
2e9b ff        rst     38h
2e9c ff        rst     38h
2e9d ff        rst     38h
2e9e ff        rst     38h
2e9f ff        rst     38h
2ea0 ff        rst     38h
2ea1 ff        rst     38h
2ea2 ff        rst     38h
2ea3 ff        rst     38h
2ea4 ff        rst     38h
2ea5 ff        rst     38h
2ea6 ff        rst     38h
2ea7 ff        rst     38h
2ea8 ff        rst     38h
2ea9 ff        rst     38h
2eaa ff        rst     38h
2eab ff        rst     38h
2eac ff        rst     38h
2ead ff        rst     38h
2eae ff        rst     38h
2eaf ff        rst     38h
2eb0 ff        rst     38h
2eb1 ff        rst     38h
2eb2 ff        rst     38h
2eb3 ff        rst     38h
2eb4 ff        rst     38h
2eb5 ff        rst     38h
2eb6 ff        rst     38h
2eb7 ff        rst     38h
2eb8 ff        rst     38h
2eb9 ff        rst     38h
2eba ff        rst     38h
2ebb ff        rst     38h
2ebc ff        rst     38h
2ebd ff        rst     38h
2ebe ff        rst     38h
2ebf ff        rst     38h
2ec0 ff        rst     38h
2ec1 ff        rst     38h
2ec2 ff        rst     38h
2ec3 ff        rst     38h
2ec4 ff        rst     38h
2ec5 ff        rst     38h
2ec6 ff        rst     38h
2ec7 ff        rst     38h
2ec8 ff        rst     38h
2ec9 ff        rst     38h
2eca ff        rst     38h
2ecb ff        rst     38h
2ecc ff        rst     38h
2ecd ff        rst     38h
2ece ff        rst     38h
2ecf ff        rst     38h
2ed0 ff        rst     38h
2ed1 ff        rst     38h
2ed2 ff        rst     38h
2ed3 ff        rst     38h
2ed4 ff        rst     38h
2ed5 ff        rst     38h
2ed6 ff        rst     38h
2ed7 ff        rst     38h
2ed8 ff        rst     38h
2ed9 ff        rst     38h
2eda ff        rst     38h
2edb ff        rst     38h
2edc ff        rst     38h
2edd ff        rst     38h
2ede ff        rst     38h
2edf ff        rst     38h
2ee0 ff        rst     38h
2ee1 ff        rst     38h
2ee2 ff        rst     38h
2ee3 ff        rst     38h
2ee4 ff        rst     38h
2ee5 ff        rst     38h
2ee6 ff        rst     38h
2ee7 ff        rst     38h
2ee8 ff        rst     38h
2ee9 ff        rst     38h
2eea ff        rst     38h
2eeb ff        rst     38h
2eec ff        rst     38h
2eed ff        rst     38h
2eee ff        rst     38h
2eef ff        rst     38h
2ef0 ff        rst     38h
2ef1 ff        rst     38h
2ef2 ff        rst     38h
2ef3 ff        rst     38h
2ef4 ff        rst     38h
2ef5 ff        rst     38h
2ef6 ff        rst     38h
2ef7 ff        rst     38h
2ef8 ff        rst     38h
2ef9 ff        rst     38h
2efa ff        rst     38h
2efb ff        rst     38h
2efc ff        rst     38h
2efd ff        rst     38h
2efe ff        rst     38h
2eff ff        rst     38h
2f00 ff        rst     38h
2f01 ff        rst     38h
2f02 ff        rst     38h
2f03 ff        rst     38h
2f04 ff        rst     38h
2f05 ff        rst     38h
2f06 ff        rst     38h
2f07 ff        rst     38h
2f08 ff        rst     38h
2f09 ff        rst     38h
2f0a ff        rst     38h
2f0b ff        rst     38h
2f0c ff        rst     38h
2f0d ff        rst     38h
2f0e ff        rst     38h
2f0f ff        rst     38h
2f10 ff        rst     38h
2f11 ff        rst     38h
2f12 ff        rst     38h
2f13 ff        rst     38h
2f14 ff        rst     38h
2f15 ff        rst     38h
2f16 ff        rst     38h
2f17 ff        rst     38h
2f18 ff        rst     38h
2f19 ff        rst     38h
2f1a ff        rst     38h
2f1b ff        rst     38h
2f1c ff        rst     38h
2f1d ff        rst     38h
2f1e ff        rst     38h
2f1f ff        rst     38h
2f20 ff        rst     38h
2f21 ff        rst     38h
2f22 ff        rst     38h
2f23 ff        rst     38h
2f24 ff        rst     38h
2f25 ff        rst     38h
2f26 ff        rst     38h
2f27 ff        rst     38h
2f28 ff        rst     38h
2f29 ff        rst     38h
2f2a ff        rst     38h
2f2b ff        rst     38h
2f2c ff        rst     38h
2f2d ff        rst     38h
2f2e ff        rst     38h
2f2f ff        rst     38h
2f30 ff        rst     38h
2f31 ff        rst     38h
2f32 ff        rst     38h
2f33 ff        rst     38h
2f34 ff        rst     38h
2f35 ff        rst     38h
2f36 ff        rst     38h
2f37 ff        rst     38h
2f38 ff        rst     38h
2f39 ff        rst     38h
2f3a ff        rst     38h
2f3b ff        rst     38h
2f3c ff        rst     38h
2f3d ff        rst     38h
2f3e ff        rst     38h
2f3f ff        rst     38h
2f40 ff        rst     38h
2f41 ff        rst     38h
2f42 ff        rst     38h
2f43 ff        rst     38h
2f44 ff        rst     38h
2f45 ff        rst     38h
2f46 ff        rst     38h
2f47 ff        rst     38h
2f48 ff        rst     38h
2f49 ff        rst     38h
2f4a ff        rst     38h
2f4b ff        rst     38h
2f4c ff        rst     38h
2f4d ff        rst     38h
2f4e ff        rst     38h
2f4f ff        rst     38h
2f50 ff        rst     38h
2f51 ff        rst     38h
2f52 ff        rst     38h
2f53 ff        rst     38h
2f54 ff        rst     38h
2f55 ff        rst     38h
2f56 ff        rst     38h
2f57 ff        rst     38h
2f58 ff        rst     38h
2f59 ff        rst     38h
2f5a ff        rst     38h
2f5b ff        rst     38h
2f5c ff        rst     38h
2f5d ff        rst     38h
2f5e ff        rst     38h
2f5f ff        rst     38h
2f60 ff        rst     38h
2f61 ff        rst     38h
2f62 ff        rst     38h
2f63 ff        rst     38h
2f64 ff        rst     38h
2f65 ff        rst     38h
2f66 ff        rst     38h
2f67 ff        rst     38h
2f68 ff        rst     38h
2f69 ff        rst     38h
2f6a ff        rst     38h
2f6b ff        rst     38h
2f6c ff        rst     38h
2f6d ff        rst     38h
2f6e ff        rst     38h
2f6f ff        rst     38h
2f70 ff        rst     38h
2f71 ff        rst     38h
2f72 ff        rst     38h
2f73 ff        rst     38h
2f74 ff        rst     38h
2f75 ff        rst     38h
2f76 ff        rst     38h
2f77 ff        rst     38h
2f78 ff        rst     38h
2f79 ff        rst     38h
2f7a ff        rst     38h
2f7b ff        rst     38h
2f7c ff        rst     38h
2f7d ff        rst     38h
2f7e ff        rst     38h
2f7f ff        rst     38h
2f80 ff        rst     38h
2f81 ff        rst     38h
2f82 ff        rst     38h
2f83 ff        rst     38h
2f84 ff        rst     38h
2f85 ff        rst     38h
2f86 ff        rst     38h
2f87 ff        rst     38h
2f88 ff        rst     38h
2f89 ff        rst     38h
2f8a ff        rst     38h
2f8b ff        rst     38h
2f8c ff        rst     38h
2f8d ff        rst     38h
2f8e ff        rst     38h
2f8f ff        rst     38h
2f90 ff        rst     38h
2f91 ff        rst     38h
2f92 ff        rst     38h
2f93 ff        rst     38h
2f94 ff        rst     38h
2f95 ff        rst     38h
2f96 ff        rst     38h
2f97 ff        rst     38h
2f98 ff        rst     38h
2f99 ff        rst     38h
2f9a ff        rst     38h
2f9b ff        rst     38h
2f9c ff        rst     38h
2f9d ff        rst     38h
2f9e ff        rst     38h
2f9f ff        rst     38h
2fa0 ff        rst     38h
2fa1 ff        rst     38h
2fa2 ff        rst     38h
2fa3 ff        rst     38h
2fa4 ff        rst     38h
2fa5 ff        rst     38h
2fa6 ff        rst     38h
2fa7 ff        rst     38h
2fa8 ff        rst     38h
2fa9 ff        rst     38h
2faa ff        rst     38h
2fab ff        rst     38h
2fac ff        rst     38h
2fad ff        rst     38h
2fae ff        rst     38h
2faf ff        rst     38h
2fb0 ff        rst     38h
2fb1 ff        rst     38h
2fb2 ff        rst     38h
2fb3 ff        rst     38h
2fb4 ff        rst     38h
2fb5 ff        rst     38h
2fb6 ff        rst     38h
2fb7 ff        rst     38h
2fb8 ff        rst     38h
2fb9 ff        rst     38h
2fba ff        rst     38h
2fbb ff        rst     38h
2fbc ff        rst     38h
2fbd ff        rst     38h
2fbe ff        rst     38h
2fbf ff        rst     38h
2fc0 ff        rst     38h
2fc1 ff        rst     38h
2fc2 ff        rst     38h
2fc3 ff        rst     38h
2fc4 ff        rst     38h
2fc5 ff        rst     38h
2fc6 ff        rst     38h
2fc7 ff        rst     38h
2fc8 ff        rst     38h
2fc9 ff        rst     38h
2fca ff        rst     38h
2fcb ff        rst     38h
2fcc ff        rst     38h
2fcd ff        rst     38h
2fce ff        rst     38h
2fcf ff        rst     38h
2fd0 ff        rst     38h
2fd1 ff        rst     38h
2fd2 ff        rst     38h
2fd3 ff        rst     38h
2fd4 ff        rst     38h
2fd5 ff        rst     38h
2fd6 ff        rst     38h
2fd7 ff        rst     38h
2fd8 ff        rst     38h
2fd9 ff        rst     38h
2fda ff        rst     38h
2fdb ff        rst     38h
2fdc ff        rst     38h
2fdd ff        rst     38h
2fde ff        rst     38h
2fdf ff        rst     38h
2fe0 ff        rst     38h
2fe1 ff        rst     38h
2fe2 ff        rst     38h
2fe3 ff        rst     38h
2fe4 ff        rst     38h
2fe5 ff        rst     38h
2fe6 ff        rst     38h
2fe7 ff        rst     38h
2fe8 ff        rst     38h
2fe9 ff        rst     38h
2fea ff        rst     38h
2feb ff        rst     38h
2fec ff        rst     38h
2fed ff        rst     38h
2fee ff        rst     38h
2fef ff        rst     38h
2ff0 ff        rst     38h
2ff1 ff        rst     38h
2ff2 ff        rst     38h
2ff3 ff        rst     38h
2ff4 ff        rst     38h
2ff5 ff        rst     38h
2ff6 ff        rst     38h
2ff7 ff        rst     38h
2ff8 ff        rst     38h
2ff9 ff        rst     38h
2ffa ff        rst     38h
2ffb ff        rst     38h
2ffc ff        rst     38h
2ffd ff        rst     38h
2ffe ff        rst     38h
2fff ff        rst     38h
3000 ff        rst     38h
3001 ff        rst     38h
3002 ff        rst     38h
3003 ff        rst     38h
3004 ff        rst     38h
3005 ff        rst     38h
3006 ff        rst     38h
3007 ff        rst     38h
3008 ff        rst     38h
3009 ff        rst     38h
300a ff        rst     38h
300b ff        rst     38h
300c ff        rst     38h
300d ff        rst     38h
300e ff        rst     38h
300f ff        rst     38h
3010 ff        rst     38h
3011 ff        rst     38h
3012 ff        rst     38h
3013 ff        rst     38h
3014 ff        rst     38h
3015 ff        rst     38h
3016 ff        rst     38h
3017 ff        rst     38h
3018 ff        rst     38h
3019 ff        rst     38h
301a ff        rst     38h
301b ff        rst     38h
301c ff        rst     38h
301d ff        rst     38h
301e ff        rst     38h
301f ff        rst     38h
3020 ff        rst     38h
3021 ff        rst     38h
3022 ff        rst     38h
3023 ff        rst     38h
3024 ff        rst     38h
3025 ff        rst     38h
3026 ff        rst     38h
3027 ff        rst     38h
3028 ff        rst     38h
3029 ff        rst     38h
302a ff        rst     38h
302b ff        rst     38h
302c ff        rst     38h
302d ff        rst     38h
302e ff        rst     38h
302f ff        rst     38h
3030 ff        rst     38h
3031 ff        rst     38h
3032 ff        rst     38h
3033 ff        rst     38h
3034 ff        rst     38h
3035 ff        rst     38h
3036 ff        rst     38h
3037 ff        rst     38h
3038 ff        rst     38h
3039 ff        rst     38h
303a ff        rst     38h
303b ff        rst     38h
303c ff        rst     38h
303d ff        rst     38h
303e ff        rst     38h
303f ff        rst     38h
3040 ff        rst     38h
3041 ff        rst     38h
3042 ff        rst     38h
3043 ff        rst     38h
3044 ff        rst     38h
3045 ff        rst     38h
3046 ff        rst     38h
3047 ff        rst     38h
3048 ff        rst     38h
3049 ff        rst     38h
304a ff        rst     38h
304b ff        rst     38h
304c ff        rst     38h
304d ff        rst     38h
304e ff        rst     38h
304f ff        rst     38h
3050 ff        rst     38h
3051 ff        rst     38h
3052 ff        rst     38h
3053 ff        rst     38h
3054 ff        rst     38h
3055 ff        rst     38h
3056 ff        rst     38h
3057 ff        rst     38h
3058 ff        rst     38h
3059 ff        rst     38h
305a ff        rst     38h
305b ff        rst     38h
305c ff        rst     38h
305d ff        rst     38h
305e ff        rst     38h
305f ff        rst     38h
3060 ff        rst     38h
3061 ff        rst     38h
3062 ff        rst     38h
3063 ff        rst     38h
3064 ff        rst     38h
3065 ff        rst     38h
3066 ff        rst     38h
3067 ff        rst     38h
3068 ff        rst     38h
3069 ff        rst     38h
306a ff        rst     38h
306b ff        rst     38h
306c ff        rst     38h
306d ff        rst     38h
306e ff        rst     38h
306f ff        rst     38h
3070 ff        rst     38h
3071 ff        rst     38h
3072 ff        rst     38h
3073 ff        rst     38h
3074 ff        rst     38h
3075 ff        rst     38h
3076 ff        rst     38h
3077 ff        rst     38h
3078 ff        rst     38h
3079 ff        rst     38h
307a ff        rst     38h
307b ff        rst     38h
307c ff        rst     38h
307d ff        rst     38h
307e ff        rst     38h
307f ff        rst     38h
3080 ff        rst     38h
3081 ff        rst     38h
3082 ff        rst     38h
3083 ff        rst     38h
3084 ff        rst     38h
3085 ff        rst     38h
3086 ff        rst     38h
3087 ff        rst     38h
3088 ff        rst     38h
3089 ff        rst     38h
308a ff        rst     38h
308b ff        rst     38h
308c ff        rst     38h
308d ff        rst     38h
308e ff        rst     38h
308f ff        rst     38h
3090 ff        rst     38h
3091 ff        rst     38h
3092 ff        rst     38h
3093 ff        rst     38h
3094 ff        rst     38h
3095 ff        rst     38h
3096 ff        rst     38h
3097 ff        rst     38h
3098 ff        rst     38h
3099 ff        rst     38h
309a ff        rst     38h
309b ff        rst     38h
309c ff        rst     38h
309d ff        rst     38h
309e ff        rst     38h
309f ff        rst     38h
30a0 ff        rst     38h
30a1 ff        rst     38h
30a2 ff        rst     38h
30a3 ff        rst     38h
30a4 ff        rst     38h
30a5 ff        rst     38h
30a6 ff        rst     38h
30a7 ff        rst     38h
30a8 ff        rst     38h
30a9 ff        rst     38h
30aa ff        rst     38h
30ab ff        rst     38h
30ac ff        rst     38h
30ad ff        rst     38h
30ae ff        rst     38h
30af ff        rst     38h
30b0 ff        rst     38h
30b1 ff        rst     38h
30b2 ff        rst     38h
30b3 ff        rst     38h
30b4 ff        rst     38h
30b5 ff        rst     38h
30b6 ff        rst     38h
30b7 ff        rst     38h
30b8 ff        rst     38h
30b9 ff        rst     38h
30ba ff        rst     38h
30bb ff        rst     38h
30bc ff        rst     38h
30bd ff        rst     38h
30be ff        rst     38h
30bf ff        rst     38h
30c0 ff        rst     38h
30c1 ff        rst     38h
30c2 ff        rst     38h
30c3 ff        rst     38h
30c4 ff        rst     38h
30c5 ff        rst     38h
30c6 ff        rst     38h
30c7 ff        rst     38h
30c8 ff        rst     38h
30c9 ff        rst     38h
30ca ff        rst     38h
30cb ff        rst     38h
30cc ff        rst     38h
30cd ff        rst     38h
30ce ff        rst     38h
30cf ff        rst     38h
30d0 ff        rst     38h
30d1 ff        rst     38h
30d2 ff        rst     38h
30d3 ff        rst     38h
30d4 ff        rst     38h
30d5 ff        rst     38h
30d6 ff        rst     38h
30d7 ff        rst     38h
30d8 ff        rst     38h
30d9 ff        rst     38h
30da ff        rst     38h
30db ff        rst     38h
30dc ff        rst     38h
30dd ff        rst     38h
30de ff        rst     38h
30df ff        rst     38h
30e0 ff        rst     38h
30e1 ff        rst     38h
30e2 ff        rst     38h
30e3 ff        rst     38h
30e4 ff        rst     38h
30e5 ff        rst     38h
30e6 ff        rst     38h
30e7 ff        rst     38h
30e8 ff        rst     38h
30e9 ff        rst     38h
30ea ff        rst     38h
30eb ff        rst     38h
30ec ff        rst     38h
30ed ff        rst     38h
30ee ff        rst     38h
30ef ff        rst     38h
30f0 ff        rst     38h
30f1 ff        rst     38h
30f2 ff        rst     38h
30f3 ff        rst     38h
30f4 ff        rst     38h
30f5 ff        rst     38h
30f6 ff        rst     38h
30f7 ff        rst     38h
30f8 ff        rst     38h
30f9 ff        rst     38h
30fa ff        rst     38h
30fb ff        rst     38h
30fc ff        rst     38h
30fd ff        rst     38h
30fe ff        rst     38h
30ff ff        rst     38h
3100 ff        rst     38h
3101 ff        rst     38h
3102 ff        rst     38h
3103 ff        rst     38h
3104 ff        rst     38h
3105 ff        rst     38h
3106 ff        rst     38h
3107 ff        rst     38h
3108 ff        rst     38h
3109 ff        rst     38h
310a ff        rst     38h
310b ff        rst     38h
310c ff        rst     38h
310d ff        rst     38h
310e ff        rst     38h
310f ff        rst     38h
3110 ff        rst     38h
3111 ff        rst     38h
3112 ff        rst     38h
3113 ff        rst     38h
3114 ff        rst     38h
3115 ff        rst     38h
3116 ff        rst     38h
3117 ff        rst     38h
3118 ff        rst     38h
3119 ff        rst     38h
311a ff        rst     38h
311b ff        rst     38h
311c ff        rst     38h
311d ff        rst     38h
311e ff        rst     38h
311f ff        rst     38h
3120 ff        rst     38h
3121 ff        rst     38h
3122 ff        rst     38h
3123 ff        rst     38h
3124 ff        rst     38h
3125 ff        rst     38h
3126 ff        rst     38h
3127 ff        rst     38h
3128 ff        rst     38h
3129 ff        rst     38h
312a ff        rst     38h
312b ff        rst     38h
312c ff        rst     38h
312d ff        rst     38h
312e ff        rst     38h
312f ff        rst     38h
3130 ff        rst     38h
3131 ff        rst     38h
3132 ff        rst     38h
3133 ff        rst     38h
3134 ff        rst     38h
3135 ff        rst     38h
3136 ff        rst     38h
3137 ff        rst     38h
3138 ff        rst     38h
3139 ff        rst     38h
313a ff        rst     38h
313b ff        rst     38h
313c ff        rst     38h
313d ff        rst     38h
313e ff        rst     38h
313f ff        rst     38h
3140 ff        rst     38h
3141 ff        rst     38h
3142 ff        rst     38h
3143 ff        rst     38h
3144 ff        rst     38h
3145 ff        rst     38h
3146 ff        rst     38h
3147 ff        rst     38h
3148 ff        rst     38h
3149 ff        rst     38h
314a ff        rst     38h
314b ff        rst     38h
314c ff        rst     38h
314d ff        rst     38h
314e ff        rst     38h
314f ff        rst     38h
3150 ff        rst     38h
3151 ff        rst     38h
3152 ff        rst     38h
3153 ff        rst     38h
3154 ff        rst     38h
3155 ff        rst     38h
3156 ff        rst     38h
3157 ff        rst     38h
3158 ff        rst     38h
3159 ff        rst     38h
315a ff        rst     38h
315b ff        rst     38h
315c ff        rst     38h
315d ff        rst     38h
315e ff        rst     38h
315f ff        rst     38h
3160 ff        rst     38h
3161 ff        rst     38h
3162 ff        rst     38h
3163 ff        rst     38h
3164 ff        rst     38h
3165 ff        rst     38h
3166 ff        rst     38h
3167 ff        rst     38h
3168 ff        rst     38h
3169 ff        rst     38h
316a ff        rst     38h
316b ff        rst     38h
316c ff        rst     38h
316d ff        rst     38h
316e ff        rst     38h
316f ff        rst     38h
3170 ff        rst     38h
3171 ff        rst     38h
3172 ff        rst     38h
3173 ff        rst     38h
3174 ff        rst     38h
3175 ff        rst     38h
3176 ff        rst     38h
3177 ff        rst     38h
3178 ff        rst     38h
3179 ff        rst     38h
317a ff        rst     38h
317b ff        rst     38h
317c ff        rst     38h
317d ff        rst     38h
317e ff        rst     38h
317f ff        rst     38h
3180 ff        rst     38h
3181 ff        rst     38h
3182 ff        rst     38h
3183 ff        rst     38h
3184 ff        rst     38h
3185 ff        rst     38h
3186 ff        rst     38h
3187 ff        rst     38h
3188 ff        rst     38h
3189 ff        rst     38h
318a ff        rst     38h
318b ff        rst     38h
318c ff        rst     38h
318d ff        rst     38h
318e ff        rst     38h
318f ff        rst     38h
3190 ff        rst     38h
3191 ff        rst     38h
3192 ff        rst     38h
3193 ff        rst     38h
3194 ff        rst     38h
3195 ff        rst     38h
3196 ff        rst     38h
3197 ff        rst     38h
3198 ff        rst     38h
3199 ff        rst     38h
319a ff        rst     38h
319b ff        rst     38h
319c ff        rst     38h
319d ff        rst     38h
319e ff        rst     38h
319f ff        rst     38h
31a0 ff        rst     38h
31a1 ff        rst     38h
31a2 ff        rst     38h
31a3 ff        rst     38h
31a4 ff        rst     38h
31a5 ff        rst     38h
31a6 ff        rst     38h
31a7 ff        rst     38h
31a8 ff        rst     38h
31a9 ff        rst     38h
31aa ff        rst     38h
31ab ff        rst     38h
31ac ff        rst     38h
31ad ff        rst     38h
31ae ff        rst     38h
31af ff        rst     38h
31b0 ff        rst     38h
31b1 ff        rst     38h
31b2 ff        rst     38h
31b3 ff        rst     38h
31b4 ff        rst     38h
31b5 ff        rst     38h
31b6 ff        rst     38h
31b7 ff        rst     38h
31b8 ff        rst     38h
31b9 ff        rst     38h
31ba ff        rst     38h
31bb ff        rst     38h
31bc ff        rst     38h
31bd ff        rst     38h
31be ff        rst     38h
31bf ff        rst     38h
31c0 ff        rst     38h
31c1 ff        rst     38h
31c2 ff        rst     38h
31c3 ff        rst     38h
31c4 ff        rst     38h
31c5 ff        rst     38h
31c6 ff        rst     38h
31c7 ff        rst     38h
31c8 ff        rst     38h
31c9 ff        rst     38h
31ca ff        rst     38h
31cb ff        rst     38h
31cc ff        rst     38h
31cd ff        rst     38h
31ce ff        rst     38h
31cf ff        rst     38h
31d0 ff        rst     38h
31d1 ff        rst     38h
31d2 ff        rst     38h
31d3 ff        rst     38h
31d4 ff        rst     38h
31d5 ff        rst     38h
31d6 ff        rst     38h
31d7 ff        rst     38h
31d8 ff        rst     38h
31d9 ff        rst     38h
31da ff        rst     38h
31db ff        rst     38h
31dc ff        rst     38h
31dd ff        rst     38h
31de ff        rst     38h
31df ff        rst     38h
31e0 ff        rst     38h
31e1 ff        rst     38h
31e2 ff        rst     38h
31e3 ff        rst     38h
31e4 ff        rst     38h
31e5 ff        rst     38h
31e6 ff        rst     38h
31e7 ff        rst     38h
31e8 ff        rst     38h
31e9 ff        rst     38h
31ea ff        rst     38h
31eb ff        rst     38h
31ec ff        rst     38h
31ed ff        rst     38h
31ee ff        rst     38h
31ef ff        rst     38h
31f0 ff        rst     38h
31f1 ff        rst     38h
31f2 ff        rst     38h
31f3 ff        rst     38h
31f4 ff        rst     38h
31f5 ff        rst     38h
31f6 ff        rst     38h
31f7 ff        rst     38h
31f8 ff        rst     38h
31f9 ff        rst     38h
31fa ff        rst     38h
31fb ff        rst     38h
31fc ff        rst     38h
31fd ff        rst     38h
31fe ff        rst     38h
31ff ff        rst     38h
3200 ff        rst     38h
3201 ff        rst     38h
3202 ff        rst     38h
3203 ff        rst     38h
3204 ff        rst     38h
3205 ff        rst     38h
3206 ff        rst     38h
3207 ff        rst     38h
3208 ff        rst     38h
3209 ff        rst     38h
320a ff        rst     38h
320b ff        rst     38h
320c ff        rst     38h
320d ff        rst     38h
320e ff        rst     38h
320f ff        rst     38h
3210 ff        rst     38h
3211 ff        rst     38h
3212 ff        rst     38h
3213 ff        rst     38h
3214 ff        rst     38h
3215 ff        rst     38h
3216 ff        rst     38h
3217 ff        rst     38h
3218 ff        rst     38h
3219 ff        rst     38h
321a ff        rst     38h
321b ff        rst     38h
321c ff        rst     38h
321d ff        rst     38h
321e ff        rst     38h
321f ff        rst     38h
3220 ff        rst     38h
3221 ff        rst     38h
3222 ff        rst     38h
3223 ff        rst     38h
3224 ff        rst     38h
3225 ff        rst     38h
3226 ff        rst     38h
3227 ff        rst     38h
3228 ff        rst     38h
3229 ff        rst     38h
322a ff        rst     38h
322b ff        rst     38h
322c ff        rst     38h
322d ff        rst     38h
322e ff        rst     38h
322f ff        rst     38h
3230 ff        rst     38h
3231 ff        rst     38h
3232 ff        rst     38h
3233 ff        rst     38h
3234 ff        rst     38h
3235 ff        rst     38h
3236 ff        rst     38h
3237 ff        rst     38h
3238 ff        rst     38h
3239 ff        rst     38h
323a ff        rst     38h
323b ff        rst     38h
323c ff        rst     38h
323d ff        rst     38h
323e ff        rst     38h
323f ff        rst     38h
3240 ff        rst     38h
3241 ff        rst     38h
3242 ff        rst     38h
3243 ff        rst     38h
3244 ff        rst     38h
3245 ff        rst     38h
3246 ff        rst     38h
3247 ff        rst     38h
3248 ff        rst     38h
3249 ff        rst     38h
324a ff        rst     38h
324b ff        rst     38h
324c ff        rst     38h
324d ff        rst     38h
324e ff        rst     38h
324f ff        rst     38h
3250 ff        rst     38h
3251 ff        rst     38h
3252 ff        rst     38h
3253 ff        rst     38h
3254 ff        rst     38h
3255 ff        rst     38h
3256 ff        rst     38h
3257 ff        rst     38h
3258 ff        rst     38h
3259 ff        rst     38h
325a ff        rst     38h
325b ff        rst     38h
325c ff        rst     38h
325d ff        rst     38h
325e ff        rst     38h
325f ff        rst     38h
3260 ff        rst     38h
3261 ff        rst     38h
3262 ff        rst     38h
3263 ff        rst     38h
3264 ff        rst     38h
3265 ff        rst     38h
3266 ff        rst     38h
3267 ff        rst     38h
3268 ff        rst     38h
3269 ff        rst     38h
326a ff        rst     38h
326b ff        rst     38h
326c ff        rst     38h
326d ff        rst     38h
326e ff        rst     38h
326f ff        rst     38h
3270 ff        rst     38h
3271 ff        rst     38h
3272 ff        rst     38h
3273 ff        rst     38h
3274 ff        rst     38h
3275 ff        rst     38h
3276 ff        rst     38h
3277 ff        rst     38h
3278 ff        rst     38h
3279 ff        rst     38h
327a ff        rst     38h
327b ff        rst     38h
327c ff        rst     38h
327d ff        rst     38h
327e ff        rst     38h
327f ff        rst     38h
3280 ff        rst     38h
3281 ff        rst     38h
3282 ff        rst     38h
3283 ff        rst     38h
3284 ff        rst     38h
3285 ff        rst     38h
3286 ff        rst     38h
3287 ff        rst     38h
3288 ff        rst     38h
3289 ff        rst     38h
328a ff        rst     38h
328b ff        rst     38h
328c ff        rst     38h
328d ff        rst     38h
328e ff        rst     38h
328f ff        rst     38h
3290 ff        rst     38h
3291 ff        rst     38h
3292 ff        rst     38h
3293 ff        rst     38h
3294 ff        rst     38h
3295 ff        rst     38h
3296 ff        rst     38h
3297 ff        rst     38h
3298 ff        rst     38h
3299 ff        rst     38h
329a ff        rst     38h
329b ff        rst     38h
329c ff        rst     38h
329d ff        rst     38h
329e ff        rst     38h
329f ff        rst     38h
32a0 ff        rst     38h
32a1 ff        rst     38h
32a2 ff        rst     38h
32a3 ff        rst     38h
32a4 ff        rst     38h
32a5 ff        rst     38h
32a6 ff        rst     38h
32a7 ff        rst     38h
32a8 ff        rst     38h
32a9 ff        rst     38h
32aa ff        rst     38h
32ab ff        rst     38h
32ac ff        rst     38h
32ad ff        rst     38h
32ae ff        rst     38h
32af ff        rst     38h
32b0 ff        rst     38h
32b1 ff        rst     38h
32b2 ff        rst     38h
32b3 ff        rst     38h
32b4 ff        rst     38h
32b5 ff        rst     38h
32b6 ff        rst     38h
32b7 ff        rst     38h
32b8 ff        rst     38h
32b9 ff        rst     38h
32ba ff        rst     38h
32bb ff        rst     38h
32bc ff        rst     38h
32bd ff        rst     38h
32be ff        rst     38h
32bf ff        rst     38h
32c0 ff        rst     38h
32c1 ff        rst     38h
32c2 ff        rst     38h
32c3 ff        rst     38h
32c4 ff        rst     38h
32c5 ff        rst     38h
32c6 ff        rst     38h
32c7 ff        rst     38h
32c8 ff        rst     38h
32c9 ff        rst     38h
32ca ff        rst     38h
32cb ff        rst     38h
32cc ff        rst     38h
32cd ff        rst     38h
32ce ff        rst     38h
32cf ff        rst     38h
32d0 ff        rst     38h
32d1 ff        rst     38h
32d2 ff        rst     38h
32d3 ff        rst     38h
32d4 ff        rst     38h
32d5 ff        rst     38h
32d6 ff        rst     38h
32d7 ff        rst     38h
32d8 ff        rst     38h
32d9 ff        rst     38h
32da ff        rst     38h
32db ff        rst     38h
32dc ff        rst     38h
32dd ff        rst     38h
32de ff        rst     38h
32df ff        rst     38h
32e0 ff        rst     38h
32e1 ff        rst     38h
32e2 ff        rst     38h
32e3 ff        rst     38h
32e4 ff        rst     38h
32e5 ff        rst     38h
32e6 ff        rst     38h
32e7 ff        rst     38h
32e8 ff        rst     38h
32e9 ff        rst     38h
32ea ff        rst     38h
32eb ff        rst     38h
32ec ff        rst     38h
32ed ff        rst     38h
32ee ff        rst     38h
32ef ff        rst     38h
32f0 ff        rst     38h
32f1 ff        rst     38h
32f2 ff        rst     38h
32f3 ff        rst     38h
32f4 ff        rst     38h
32f5 ff        rst     38h
32f6 ff        rst     38h
32f7 ff        rst     38h
32f8 ff        rst     38h
32f9 ff        rst     38h
32fa ff        rst     38h
32fb ff        rst     38h
32fc ff        rst     38h
32fd ff        rst     38h
32fe ff        rst     38h
32ff ff        rst     38h
3300 ff        rst     38h
3301 ff        rst     38h
3302 ff        rst     38h
3303 ff        rst     38h
3304 ff        rst     38h
3305 ff        rst     38h
3306 ff        rst     38h
3307 ff        rst     38h
3308 ff        rst     38h
3309 ff        rst     38h
330a ff        rst     38h
330b ff        rst     38h
330c ff        rst     38h
330d ff        rst     38h
330e ff        rst     38h
330f ff        rst     38h
3310 ff        rst     38h
3311 ff        rst     38h
3312 ff        rst     38h
3313 ff        rst     38h
3314 ff        rst     38h
3315 ff        rst     38h
3316 ff        rst     38h
3317 ff        rst     38h
3318 ff        rst     38h
3319 ff        rst     38h
331a ff        rst     38h
331b ff        rst     38h
331c ff        rst     38h
331d ff        rst     38h
331e ff        rst     38h
331f ff        rst     38h
3320 ff        rst     38h
3321 ff        rst     38h
3322 ff        rst     38h
3323 ff        rst     38h
3324 ff        rst     38h
3325 ff        rst     38h
3326 ff        rst     38h
3327 ff        rst     38h
3328 ff        rst     38h
3329 ff        rst     38h
332a ff        rst     38h
332b ff        rst     38h
332c ff        rst     38h
332d ff        rst     38h
332e ff        rst     38h
332f ff        rst     38h
3330 ff        rst     38h
3331 ff        rst     38h
3332 ff        rst     38h
3333 ff        rst     38h
3334 ff        rst     38h
3335 ff        rst     38h
3336 ff        rst     38h
3337 ff        rst     38h
3338 ff        rst     38h
3339 ff        rst     38h
333a ff        rst     38h
333b ff        rst     38h
333c ff        rst     38h
333d ff        rst     38h
333e ff        rst     38h
333f ff        rst     38h
3340 ff        rst     38h
3341 ff        rst     38h
3342 ff        rst     38h
3343 ff        rst     38h
3344 ff        rst     38h
3345 ff        rst     38h
3346 ff        rst     38h
3347 ff        rst     38h
3348 ff        rst     38h
3349 ff        rst     38h
334a ff        rst     38h
334b ff        rst     38h
334c ff        rst     38h
334d ff        rst     38h
334e ff        rst     38h
334f ff        rst     38h
3350 ff        rst     38h
3351 ff        rst     38h
3352 ff        rst     38h
3353 ff        rst     38h
3354 ff        rst     38h
3355 ff        rst     38h
3356 ff        rst     38h
3357 ff        rst     38h
3358 ff        rst     38h
3359 ff        rst     38h
335a ff        rst     38h
335b ff        rst     38h
335c ff        rst     38h
335d ff        rst     38h
335e ff        rst     38h
335f ff        rst     38h
3360 ff        rst     38h
3361 ff        rst     38h
3362 ff        rst     38h
3363 ff        rst     38h
3364 ff        rst     38h
3365 ff        rst     38h
3366 ff        rst     38h
3367 ff        rst     38h
3368 ff        rst     38h
3369 ff        rst     38h
336a ff        rst     38h
336b ff        rst     38h
336c ff        rst     38h
336d ff        rst     38h
336e ff        rst     38h
336f ff        rst     38h
3370 ff        rst     38h
3371 ff        rst     38h
3372 ff        rst     38h
3373 ff        rst     38h
3374 ff        rst     38h
3375 ff        rst     38h
3376 ff        rst     38h
3377 ff        rst     38h
3378 ff        rst     38h
3379 ff        rst     38h
337a ff        rst     38h
337b ff        rst     38h
337c ff        rst     38h
337d ff        rst     38h
337e ff        rst     38h
337f ff        rst     38h
3380 ff        rst     38h
3381 ff        rst     38h
3382 ff        rst     38h
3383 ff        rst     38h
3384 ff        rst     38h
3385 ff        rst     38h
3386 ff        rst     38h
3387 ff        rst     38h
3388 ff        rst     38h
3389 ff        rst     38h
338a ff        rst     38h
338b ff        rst     38h
338c ff        rst     38h
338d ff        rst     38h
338e ff        rst     38h
338f ff        rst     38h
3390 ff        rst     38h
3391 ff        rst     38h
3392 ff        rst     38h
3393 ff        rst     38h
3394 ff        rst     38h
3395 ff        rst     38h
3396 ff        rst     38h
3397 ff        rst     38h
3398 ff        rst     38h
3399 ff        rst     38h
339a ff        rst     38h
339b ff        rst     38h
339c ff        rst     38h
339d ff        rst     38h
339e ff        rst     38h
339f ff        rst     38h
33a0 ff        rst     38h
33a1 ff        rst     38h
33a2 ff        rst     38h
33a3 ff        rst     38h
33a4 ff        rst     38h
33a5 ff        rst     38h
33a6 ff        rst     38h
33a7 ff        rst     38h
33a8 ff        rst     38h
33a9 ff        rst     38h
33aa ff        rst     38h
33ab ff        rst     38h
33ac ff        rst     38h
33ad ff        rst     38h
33ae ff        rst     38h
33af ff        rst     38h
33b0 ff        rst     38h
33b1 ff        rst     38h
33b2 ff        rst     38h
33b3 ff        rst     38h
33b4 ff        rst     38h
33b5 ff        rst     38h
33b6 ff        rst     38h
33b7 ff        rst     38h
33b8 ff        rst     38h
33b9 ff        rst     38h
33ba ff        rst     38h
33bb ff        rst     38h
33bc ff        rst     38h
33bd ff        rst     38h
33be ff        rst     38h
33bf ff        rst     38h
33c0 ff        rst     38h
33c1 ff        rst     38h
33c2 ff        rst     38h
33c3 ff        rst     38h
33c4 ff        rst     38h
33c5 ff        rst     38h
33c6 ff        rst     38h
33c7 ff        rst     38h
33c8 ff        rst     38h
33c9 ff        rst     38h
33ca ff        rst     38h
33cb ff        rst     38h
33cc ff        rst     38h
33cd ff        rst     38h
33ce ff        rst     38h
33cf ff        rst     38h
33d0 ff        rst     38h
33d1 ff        rst     38h
33d2 ff        rst     38h
33d3 ff        rst     38h
33d4 ff        rst     38h
33d5 ff        rst     38h
33d6 ff        rst     38h
33d7 ff        rst     38h
33d8 ff        rst     38h
33d9 ff        rst     38h
33da ff        rst     38h
33db ff        rst     38h
33dc ff        rst     38h
33dd ff        rst     38h
33de ff        rst     38h
33df ff        rst     38h
33e0 ff        rst     38h
33e1 ff        rst     38h
33e2 ff        rst     38h
33e3 ff        rst     38h
33e4 ff        rst     38h
33e5 ff        rst     38h
33e6 ff        rst     38h
33e7 ff        rst     38h
33e8 ff        rst     38h
33e9 ff        rst     38h
33ea ff        rst     38h
33eb ff        rst     38h
33ec ff        rst     38h
33ed ff        rst     38h
33ee ff        rst     38h
33ef ff        rst     38h
33f0 ff        rst     38h
33f1 ff        rst     38h
33f2 ff        rst     38h
33f3 ff        rst     38h
33f4 ff        rst     38h
33f5 ff        rst     38h
33f6 ff        rst     38h
33f7 ff        rst     38h
33f8 ff        rst     38h
33f9 ff        rst     38h
33fa ff        rst     38h
33fb ff        rst     38h
33fc ff        rst     38h
33fd ff        rst     38h
33fe ff        rst     38h
33ff ff        rst     38h
3400 ff        rst     38h
3401 ff        rst     38h
3402 ff        rst     38h
3403 ff        rst     38h
3404 ff        rst     38h
3405 ff        rst     38h
3406 ff        rst     38h
3407 ff        rst     38h
3408 ff        rst     38h
3409 ff        rst     38h
340a ff        rst     38h
340b ff        rst     38h
340c ff        rst     38h
340d ff        rst     38h
340e ff        rst     38h
340f ff        rst     38h
3410 ff        rst     38h
3411 ff        rst     38h
3412 ff        rst     38h
3413 ff        rst     38h
3414 ff        rst     38h
3415 ff        rst     38h
3416 ff        rst     38h
3417 ff        rst     38h
3418 ff        rst     38h
3419 ff        rst     38h
341a ff        rst     38h
341b ff        rst     38h
341c ff        rst     38h
341d ff        rst     38h
341e ff        rst     38h
341f ff        rst     38h
3420 ff        rst     38h
3421 ff        rst     38h
3422 ff        rst     38h
3423 ff        rst     38h
3424 ff        rst     38h
3425 ff        rst     38h
3426 ff        rst     38h
3427 ff        rst     38h
3428 ff        rst     38h
3429 ff        rst     38h
342a ff        rst     38h
342b ff        rst     38h
342c ff        rst     38h
342d ff        rst     38h
342e ff        rst     38h
342f ff        rst     38h
3430 ff        rst     38h
3431 ff        rst     38h
3432 ff        rst     38h
3433 ff        rst     38h
3434 ff        rst     38h
3435 ff        rst     38h
3436 ff        rst     38h
3437 ff        rst     38h
3438 ff        rst     38h
3439 ff        rst     38h
343a ff        rst     38h
343b ff        rst     38h
343c ff        rst     38h
343d ff        rst     38h
343e ff        rst     38h
343f ff        rst     38h
3440 ff        rst     38h
3441 ff        rst     38h
3442 ff        rst     38h
3443 ff        rst     38h
3444 ff        rst     38h
3445 ff        rst     38h
3446 ff        rst     38h
3447 ff        rst     38h
3448 ff        rst     38h
3449 ff        rst     38h
344a ff        rst     38h
344b ff        rst     38h
344c ff        rst     38h
344d ff        rst     38h
344e ff        rst     38h
344f ff        rst     38h
3450 ff        rst     38h
3451 ff        rst     38h
3452 ff        rst     38h
3453 ff        rst     38h
3454 ff        rst     38h
3455 ff        rst     38h
3456 ff        rst     38h
3457 ff        rst     38h
3458 ff        rst     38h
3459 ff        rst     38h
345a ff        rst     38h
345b ff        rst     38h
345c ff        rst     38h
345d ff        rst     38h
345e ff        rst     38h
345f ff        rst     38h
3460 ff        rst     38h
3461 ff        rst     38h
3462 ff        rst     38h
3463 ff        rst     38h
3464 ff        rst     38h
3465 ff        rst     38h
3466 ff        rst     38h
3467 ff        rst     38h
3468 ff        rst     38h
3469 ff        rst     38h
346a ff        rst     38h
346b ff        rst     38h
346c ff        rst     38h
346d ff        rst     38h
346e ff        rst     38h
346f ff        rst     38h
3470 ff        rst     38h
3471 ff        rst     38h
3472 ff        rst     38h
3473 ff        rst     38h
3474 ff        rst     38h
3475 ff        rst     38h
3476 ff        rst     38h
3477 ff        rst     38h
3478 ff        rst     38h
3479 ff        rst     38h
347a ff        rst     38h
347b ff        rst     38h
347c ff        rst     38h
347d ff        rst     38h
347e ff        rst     38h
347f ff        rst     38h
3480 ff        rst     38h
3481 ff        rst     38h
3482 ff        rst     38h
3483 ff        rst     38h
3484 ff        rst     38h
3485 ff        rst     38h
3486 ff        rst     38h
3487 ff        rst     38h
3488 ff        rst     38h
3489 ff        rst     38h
348a ff        rst     38h
348b ff        rst     38h
348c ff        rst     38h
348d ff        rst     38h
348e ff        rst     38h
348f ff        rst     38h
3490 ff        rst     38h
3491 ff        rst     38h
3492 ff        rst     38h
3493 ff        rst     38h
3494 ff        rst     38h
3495 ff        rst     38h
3496 ff        rst     38h
3497 ff        rst     38h
3498 ff        rst     38h
3499 ff        rst     38h
349a ff        rst     38h
349b ff        rst     38h
349c ff        rst     38h
349d ff        rst     38h
349e ff        rst     38h
349f ff        rst     38h
34a0 ff        rst     38h
34a1 ff        rst     38h
34a2 ff        rst     38h
34a3 ff        rst     38h
34a4 ff        rst     38h
34a5 ff        rst     38h
34a6 ff        rst     38h
34a7 ff        rst     38h
34a8 ff        rst     38h
34a9 ff        rst     38h
34aa ff        rst     38h
34ab ff        rst     38h
34ac ff        rst     38h
34ad ff        rst     38h
34ae ff        rst     38h
34af ff        rst     38h
34b0 ff        rst     38h
34b1 ff        rst     38h
34b2 ff        rst     38h
34b3 ff        rst     38h
34b4 ff        rst     38h
34b5 ff        rst     38h
34b6 ff        rst     38h
34b7 ff        rst     38h
34b8 ff        rst     38h
34b9 ff        rst     38h
34ba ff        rst     38h
34bb ff        rst     38h
34bc ff        rst     38h
34bd ff        rst     38h
34be ff        rst     38h
34bf ff        rst     38h
34c0 ff        rst     38h
34c1 ff        rst     38h
34c2 ff        rst     38h
34c3 ff        rst     38h
34c4 ff        rst     38h
34c5 ff        rst     38h
34c6 ff        rst     38h
34c7 ff        rst     38h
34c8 ff        rst     38h
34c9 ff        rst     38h
34ca ff        rst     38h
34cb ff        rst     38h
34cc ff        rst     38h
34cd ff        rst     38h
34ce ff        rst     38h
34cf ff        rst     38h
34d0 ff        rst     38h
34d1 ff        rst     38h
34d2 ff        rst     38h
34d3 ff        rst     38h
34d4 ff        rst     38h
34d5 ff        rst     38h
34d6 ff        rst     38h
34d7 ff        rst     38h
34d8 ff        rst     38h
34d9 ff        rst     38h
34da ff        rst     38h
34db ff        rst     38h
34dc ff        rst     38h
34dd ff        rst     38h
34de ff        rst     38h
34df ff        rst     38h
34e0 ff        rst     38h
34e1 ff        rst     38h
34e2 ff        rst     38h
34e3 ff        rst     38h
34e4 ff        rst     38h
34e5 ff        rst     38h
34e6 ff        rst     38h
34e7 ff        rst     38h
34e8 ff        rst     38h
34e9 ff        rst     38h
34ea ff        rst     38h
34eb ff        rst     38h
34ec ff        rst     38h
34ed ff        rst     38h
34ee ff        rst     38h
34ef ff        rst     38h
34f0 ff        rst     38h
34f1 ff        rst     38h
34f2 ff        rst     38h
34f3 ff        rst     38h
34f4 ff        rst     38h
34f5 ff        rst     38h
34f6 ff        rst     38h
34f7 ff        rst     38h
34f8 ff        rst     38h
34f9 ff        rst     38h
34fa ff        rst     38h
34fb ff        rst     38h
34fc ff        rst     38h
34fd ff        rst     38h
34fe ff        rst     38h
34ff ff        rst     38h
3500 ff        rst     38h
3501 ff        rst     38h
3502 ff        rst     38h
3503 ff        rst     38h
3504 ff        rst     38h
3505 ff        rst     38h
3506 ff        rst     38h
3507 ff        rst     38h
3508 ff        rst     38h
3509 ff        rst     38h
350a ff        rst     38h
350b ff        rst     38h
350c ff        rst     38h
350d ff        rst     38h
350e ff        rst     38h
350f ff        rst     38h
3510 ff        rst     38h
3511 ff        rst     38h
3512 ff        rst     38h
3513 ff        rst     38h
3514 ff        rst     38h
3515 ff        rst     38h
3516 ff        rst     38h
3517 ff        rst     38h
3518 ff        rst     38h
3519 ff        rst     38h
351a ff        rst     38h
351b ff        rst     38h
351c ff        rst     38h
351d ff        rst     38h
351e ff        rst     38h
351f ff        rst     38h
3520 ff        rst     38h
3521 ff        rst     38h
3522 ff        rst     38h
3523 ff        rst     38h
3524 ff        rst     38h
3525 ff        rst     38h
3526 ff        rst     38h
3527 ff        rst     38h
3528 ff        rst     38h
3529 ff        rst     38h
352a ff        rst     38h
352b ff        rst     38h
352c ff        rst     38h
352d ff        rst     38h
352e ff        rst     38h
352f ff        rst     38h
3530 ff        rst     38h
3531 ff        rst     38h
3532 ff        rst     38h
3533 ff        rst     38h
3534 ff        rst     38h
3535 ff        rst     38h
3536 ff        rst     38h
3537 ff        rst     38h
3538 ff        rst     38h
3539 ff        rst     38h
353a ff        rst     38h
353b ff        rst     38h
353c ff        rst     38h
353d ff        rst     38h
353e ff        rst     38h
353f ff        rst     38h
3540 ff        rst     38h
3541 ff        rst     38h
3542 ff        rst     38h
3543 ff        rst     38h
3544 ff        rst     38h
3545 ff        rst     38h
3546 ff        rst     38h
3547 ff        rst     38h
3548 ff        rst     38h
3549 ff        rst     38h
354a ff        rst     38h
354b ff        rst     38h
354c ff        rst     38h
354d ff        rst     38h
354e ff        rst     38h
354f ff        rst     38h
3550 ff        rst     38h
3551 ff        rst     38h
3552 ff        rst     38h
3553 ff        rst     38h
3554 ff        rst     38h
3555 ff        rst     38h
3556 ff        rst     38h
3557 ff        rst     38h
3558 ff        rst     38h
3559 ff        rst     38h
355a ff        rst     38h
355b ff        rst     38h
355c ff        rst     38h
355d ff        rst     38h
355e ff        rst     38h
355f ff        rst     38h
3560 ff        rst     38h
3561 ff        rst     38h
3562 ff        rst     38h
3563 ff        rst     38h
3564 ff        rst     38h
3565 ff        rst     38h
3566 ff        rst     38h
3567 ff        rst     38h
3568 ff        rst     38h
3569 ff        rst     38h
356a ff        rst     38h
356b ff        rst     38h
356c ff        rst     38h
356d ff        rst     38h
356e ff        rst     38h
356f ff        rst     38h
3570 ff        rst     38h
3571 ff        rst     38h
3572 ff        rst     38h
3573 ff        rst     38h
3574 ff        rst     38h
3575 ff        rst     38h
3576 ff        rst     38h
3577 ff        rst     38h
3578 ff        rst     38h
3579 ff        rst     38h
357a ff        rst     38h
357b ff        rst     38h
357c ff        rst     38h
357d ff        rst     38h
357e ff        rst     38h
357f ff        rst     38h
3580 ff        rst     38h
3581 ff        rst     38h
3582 ff        rst     38h
3583 ff        rst     38h
3584 ff        rst     38h
3585 ff        rst     38h
3586 ff        rst     38h
3587 ff        rst     38h
3588 ff        rst     38h
3589 ff        rst     38h
358a ff        rst     38h
358b ff        rst     38h
358c ff        rst     38h
358d ff        rst     38h
358e ff        rst     38h
358f ff        rst     38h
3590 ff        rst     38h
3591 ff        rst     38h
3592 ff        rst     38h
3593 ff        rst     38h
3594 ff        rst     38h
3595 ff        rst     38h
3596 ff        rst     38h
3597 ff        rst     38h
3598 ff        rst     38h
3599 ff        rst     38h
359a ff        rst     38h
359b ff        rst     38h
359c ff        rst     38h
359d ff        rst     38h
359e ff        rst     38h
359f ff        rst     38h
35a0 ff        rst     38h
35a1 ff        rst     38h
35a2 ff        rst     38h
35a3 ff        rst     38h
35a4 ff        rst     38h
35a5 ff        rst     38h
35a6 ff        rst     38h
35a7 ff        rst     38h
35a8 ff        rst     38h
35a9 ff        rst     38h
35aa ff        rst     38h
35ab ff        rst     38h
35ac ff        rst     38h
35ad ff        rst     38h
35ae ff        rst     38h
35af ff        rst     38h
35b0 ff        rst     38h
35b1 ff        rst     38h
35b2 ff        rst     38h
35b3 ff        rst     38h
35b4 ff        rst     38h
35b5 ff        rst     38h
35b6 ff        rst     38h
35b7 ff        rst     38h
35b8 ff        rst     38h
35b9 ff        rst     38h
35ba ff        rst     38h
35bb ff        rst     38h
35bc ff        rst     38h
35bd ff        rst     38h
35be ff        rst     38h
35bf ff        rst     38h
35c0 ff        rst     38h
35c1 ff        rst     38h
35c2 ff        rst     38h
35c3 ff        rst     38h
35c4 ff        rst     38h
35c5 ff        rst     38h
35c6 ff        rst     38h
35c7 ff        rst     38h
35c8 ff        rst     38h
35c9 ff        rst     38h
35ca ff        rst     38h
35cb ff        rst     38h
35cc ff        rst     38h
35cd ff        rst     38h
35ce ff        rst     38h
35cf ff        rst     38h
35d0 ff        rst     38h
35d1 ff        rst     38h
35d2 ff        rst     38h
35d3 ff        rst     38h
35d4 ff        rst     38h
35d5 ff        rst     38h
35d6 ff        rst     38h
35d7 ff        rst     38h
35d8 ff        rst     38h
35d9 ff        rst     38h
35da ff        rst     38h
35db ff        rst     38h
35dc ff        rst     38h
35dd ff        rst     38h
35de ff        rst     38h
35df ff        rst     38h
35e0 ff        rst     38h
35e1 ff        rst     38h
35e2 ff        rst     38h
35e3 ff        rst     38h
35e4 ff        rst     38h
35e5 ff        rst     38h
35e6 ff        rst     38h
35e7 ff        rst     38h
35e8 ff        rst     38h
35e9 ff        rst     38h
35ea ff        rst     38h
35eb ff        rst     38h
35ec ff        rst     38h
35ed ff        rst     38h
35ee ff        rst     38h
35ef ff        rst     38h
35f0 ff        rst     38h
35f1 ff        rst     38h
35f2 ff        rst     38h
35f3 ff        rst     38h
35f4 ff        rst     38h
35f5 ff        rst     38h
35f6 ff        rst     38h
35f7 ff        rst     38h
35f8 ff        rst     38h
35f9 ff        rst     38h
35fa ff        rst     38h
35fb ff        rst     38h
35fc ff        rst     38h
35fd ff        rst     38h
35fe ff        rst     38h
35ff ff        rst     38h
3600 ff        rst     38h
3601 ff        rst     38h
3602 ff        rst     38h
3603 ff        rst     38h
3604 ff        rst     38h
3605 ff        rst     38h
3606 ff        rst     38h
3607 ff        rst     38h
3608 ff        rst     38h
3609 ff        rst     38h
360a ff        rst     38h
360b ff        rst     38h
360c ff        rst     38h
360d ff        rst     38h
360e ff        rst     38h
360f ff        rst     38h
3610 ff        rst     38h
3611 ff        rst     38h
3612 ff        rst     38h
3613 ff        rst     38h
3614 ff        rst     38h
3615 ff        rst     38h
3616 ff        rst     38h
3617 ff        rst     38h
3618 ff        rst     38h
3619 ff        rst     38h
361a ff        rst     38h
361b ff        rst     38h
361c ff        rst     38h
361d ff        rst     38h
361e ff        rst     38h
361f ff        rst     38h
3620 ff        rst     38h
3621 ff        rst     38h
3622 ff        rst     38h
3623 ff        rst     38h
3624 ff        rst     38h
3625 ff        rst     38h
3626 ff        rst     38h
3627 ff        rst     38h
3628 ff        rst     38h
3629 ff        rst     38h
362a ff        rst     38h
362b ff        rst     38h
362c ff        rst     38h
362d ff        rst     38h
362e ff        rst     38h
362f ff        rst     38h
3630 ff        rst     38h
3631 ff        rst     38h
3632 ff        rst     38h
3633 ff        rst     38h
3634 ff        rst     38h
3635 ff        rst     38h
3636 ff        rst     38h
3637 ff        rst     38h
3638 ff        rst     38h
3639 ff        rst     38h
363a ff        rst     38h
363b ff        rst     38h
363c ff        rst     38h
363d ff        rst     38h
363e ff        rst     38h
363f ff        rst     38h
3640 ff        rst     38h
3641 ff        rst     38h
3642 ff        rst     38h
3643 ff        rst     38h
3644 ff        rst     38h
3645 ff        rst     38h
3646 ff        rst     38h
3647 ff        rst     38h
3648 ff        rst     38h
3649 ff        rst     38h
364a ff        rst     38h
364b ff        rst     38h
364c ff        rst     38h
364d ff        rst     38h
364e ff        rst     38h
364f ff        rst     38h
3650 ff        rst     38h
3651 ff        rst     38h
3652 ff        rst     38h
3653 ff        rst     38h
3654 ff        rst     38h
3655 ff        rst     38h
3656 ff        rst     38h
3657 ff        rst     38h
3658 ff        rst     38h
3659 ff        rst     38h
365a ff        rst     38h
365b ff        rst     38h
365c ff        rst     38h
365d ff        rst     38h
365e ff        rst     38h
365f ff        rst     38h
3660 ff        rst     38h
3661 ff        rst     38h
3662 ff        rst     38h
3663 ff        rst     38h
3664 ff        rst     38h
3665 ff        rst     38h
3666 ff        rst     38h
3667 ff        rst     38h
3668 ff        rst     38h
3669 ff        rst     38h
366a ff        rst     38h
366b ff        rst     38h
366c ff        rst     38h
366d ff        rst     38h
366e ff        rst     38h
366f ff        rst     38h
3670 ff        rst     38h
3671 ff        rst     38h
3672 ff        rst     38h
3673 ff        rst     38h
3674 ff        rst     38h
3675 ff        rst     38h
3676 ff        rst     38h
3677 ff        rst     38h
3678 ff        rst     38h
3679 ff        rst     38h
367a ff        rst     38h
367b ff        rst     38h
367c ff        rst     38h
367d ff        rst     38h
367e ff        rst     38h
367f ff        rst     38h
3680 ff        rst     38h
3681 ff        rst     38h
3682 ff        rst     38h
3683 ff        rst     38h
3684 ff        rst     38h
3685 ff        rst     38h
3686 ff        rst     38h
3687 ff        rst     38h
3688 ff        rst     38h
3689 ff        rst     38h
368a ff        rst     38h
368b ff        rst     38h
368c ff        rst     38h
368d ff        rst     38h
368e ff        rst     38h
368f ff        rst     38h
3690 ff        rst     38h
3691 ff        rst     38h
3692 ff        rst     38h
3693 ff        rst     38h
3694 ff        rst     38h
3695 ff        rst     38h
3696 ff        rst     38h
3697 ff        rst     38h
3698 ff        rst     38h
3699 ff        rst     38h
369a ff        rst     38h
369b ff        rst     38h
369c ff        rst     38h
369d ff        rst     38h
369e ff        rst     38h
369f ff        rst     38h
36a0 ff        rst     38h
36a1 ff        rst     38h
36a2 ff        rst     38h
36a3 ff        rst     38h
36a4 ff        rst     38h
36a5 ff        rst     38h
36a6 ff        rst     38h
36a7 ff        rst     38h
36a8 ff        rst     38h
36a9 ff        rst     38h
36aa ff        rst     38h
36ab ff        rst     38h
36ac ff        rst     38h
36ad ff        rst     38h
36ae ff        rst     38h
36af ff        rst     38h
36b0 ff        rst     38h
36b1 ff        rst     38h
36b2 ff        rst     38h
36b3 ff        rst     38h
36b4 ff        rst     38h
36b5 ff        rst     38h
36b6 ff        rst     38h
36b7 ff        rst     38h
36b8 ff        rst     38h
36b9 ff        rst     38h
36ba ff        rst     38h
36bb ff        rst     38h
36bc ff        rst     38h
36bd ff        rst     38h
36be ff        rst     38h
36bf ff        rst     38h
36c0 ff        rst     38h
36c1 ff        rst     38h
36c2 ff        rst     38h
36c3 ff        rst     38h
36c4 ff        rst     38h
36c5 ff        rst     38h
36c6 ff        rst     38h
36c7 ff        rst     38h
36c8 ff        rst     38h
36c9 ff        rst     38h
36ca ff        rst     38h
36cb ff        rst     38h
36cc ff        rst     38h
36cd ff        rst     38h
36ce ff        rst     38h
36cf ff        rst     38h
36d0 ff        rst     38h
36d1 ff        rst     38h
36d2 ff        rst     38h
36d3 ff        rst     38h
36d4 ff        rst     38h
36d5 ff        rst     38h
36d6 ff        rst     38h
36d7 ff        rst     38h
36d8 ff        rst     38h
36d9 ff        rst     38h
36da ff        rst     38h
36db ff        rst     38h
36dc ff        rst     38h
36dd ff        rst     38h
36de ff        rst     38h
36df ff        rst     38h
36e0 ff        rst     38h
36e1 ff        rst     38h
36e2 ff        rst     38h
36e3 ff        rst     38h
36e4 ff        rst     38h
36e5 ff        rst     38h
36e6 ff        rst     38h
36e7 ff        rst     38h
36e8 ff        rst     38h
36e9 ff        rst     38h
36ea ff        rst     38h
36eb ff        rst     38h
36ec ff        rst     38h
36ed ff        rst     38h
36ee ff        rst     38h
36ef ff        rst     38h
36f0 ff        rst     38h
36f1 ff        rst     38h
36f2 ff        rst     38h
36f3 ff        rst     38h
36f4 ff        rst     38h
36f5 ff        rst     38h
36f6 ff        rst     38h
36f7 ff        rst     38h
36f8 ff        rst     38h
36f9 ff        rst     38h
36fa ff        rst     38h
36fb ff        rst     38h
36fc ff        rst     38h
36fd ff        rst     38h
36fe ff        rst     38h
36ff ff        rst     38h
3700 ff        rst     38h
3701 ff        rst     38h
3702 ff        rst     38h
3703 ff        rst     38h
3704 ff        rst     38h
3705 ff        rst     38h
3706 ff        rst     38h
3707 ff        rst     38h
3708 ff        rst     38h
3709 ff        rst     38h
370a ff        rst     38h
370b ff        rst     38h
370c ff        rst     38h
370d ff        rst     38h
370e ff        rst     38h
370f ff        rst     38h
3710 ff        rst     38h
3711 ff        rst     38h
3712 ff        rst     38h
3713 ff        rst     38h
3714 ff        rst     38h
3715 ff        rst     38h
3716 ff        rst     38h
3717 ff        rst     38h
3718 ff        rst     38h
3719 ff        rst     38h
371a ff        rst     38h
371b ff        rst     38h
371c ff        rst     38h
371d ff        rst     38h
371e ff        rst     38h
371f ff        rst     38h
3720 ff        rst     38h
3721 ff        rst     38h
3722 ff        rst     38h
3723 ff        rst     38h
3724 ff        rst     38h
3725 ff        rst     38h
3726 ff        rst     38h
3727 ff        rst     38h
3728 ff        rst     38h
3729 ff        rst     38h
372a ff        rst     38h
372b ff        rst     38h
372c ff        rst     38h
372d ff        rst     38h
372e ff        rst     38h
372f ff        rst     38h
3730 ff        rst     38h
3731 ff        rst     38h
3732 ff        rst     38h
3733 ff        rst     38h
3734 ff        rst     38h
3735 ff        rst     38h
3736 ff        rst     38h
3737 ff        rst     38h
3738 ff        rst     38h
3739 ff        rst     38h
373a ff        rst     38h
373b ff        rst     38h
373c ff        rst     38h
373d ff        rst     38h
373e ff        rst     38h
373f ff        rst     38h
3740 ff        rst     38h
3741 ff        rst     38h
3742 ff        rst     38h
3743 ff        rst     38h
3744 ff        rst     38h
3745 ff        rst     38h
3746 ff        rst     38h
3747 ff        rst     38h
3748 ff        rst     38h
3749 ff        rst     38h
374a ff        rst     38h
374b ff        rst     38h
374c ff        rst     38h
374d ff        rst     38h
374e ff        rst     38h
374f ff        rst     38h
3750 ff        rst     38h
3751 ff        rst     38h
3752 ff        rst     38h
3753 ff        rst     38h
3754 ff        rst     38h
3755 ff        rst     38h
3756 ff        rst     38h
3757 ff        rst     38h
3758 ff        rst     38h
3759 ff        rst     38h
375a ff        rst     38h
375b ff        rst     38h
375c ff        rst     38h
375d ff        rst     38h
375e ff        rst     38h
375f ff        rst     38h
3760 ff        rst     38h
3761 ff        rst     38h
3762 ff        rst     38h
3763 ff        rst     38h
3764 ff        rst     38h
3765 ff        rst     38h
3766 ff        rst     38h
3767 ff        rst     38h
3768 ff        rst     38h
3769 ff        rst     38h
376a ff        rst     38h
376b ff        rst     38h
376c ff        rst     38h
376d ff        rst     38h
376e ff        rst     38h
376f ff        rst     38h
3770 ff        rst     38h
3771 ff        rst     38h
3772 ff        rst     38h
3773 ff        rst     38h
3774 ff        rst     38h
3775 ff        rst     38h
3776 ff        rst     38h
3777 ff        rst     38h
3778 ff        rst     38h
3779 ff        rst     38h
377a ff        rst     38h
377b ff        rst     38h
377c ff        rst     38h
377d ff        rst     38h
377e ff        rst     38h
377f ff        rst     38h
3780 ff        rst     38h
3781 ff        rst     38h
3782 ff        rst     38h
3783 ff        rst     38h
3784 ff        rst     38h
3785 ff        rst     38h
3786 ff        rst     38h
3787 ff        rst     38h
3788 ff        rst     38h
3789 ff        rst     38h
378a ff        rst     38h
378b ff        rst     38h
378c ff        rst     38h
378d ff        rst     38h
378e ff        rst     38h
378f ff        rst     38h
3790 ff        rst     38h
3791 ff        rst     38h
3792 ff        rst     38h
3793 ff        rst     38h
3794 ff        rst     38h
3795 ff        rst     38h
3796 ff        rst     38h
3797 ff        rst     38h
3798 ff        rst     38h
3799 ff        rst     38h
379a ff        rst     38h
379b ff        rst     38h
379c ff        rst     38h
379d ff        rst     38h
379e ff        rst     38h
379f ff        rst     38h
37a0 ff        rst     38h
37a1 ff        rst     38h
37a2 ff        rst     38h
37a3 ff        rst     38h
37a4 ff        rst     38h
37a5 ff        rst     38h
37a6 ff        rst     38h
37a7 ff        rst     38h
37a8 ff        rst     38h
37a9 ff        rst     38h
37aa ff        rst     38h
37ab ff        rst     38h
37ac ff        rst     38h
37ad ff        rst     38h
37ae ff        rst     38h
37af ff        rst     38h
37b0 ff        rst     38h
37b1 ff        rst     38h
37b2 ff        rst     38h
37b3 ff        rst     38h
37b4 ff        rst     38h
37b5 ff        rst     38h
37b6 ff        rst     38h
37b7 ff        rst     38h
37b8 ff        rst     38h
37b9 ff        rst     38h
37ba ff        rst     38h
37bb ff        rst     38h
37bc ff        rst     38h
37bd ff        rst     38h
37be ff        rst     38h
37bf ff        rst     38h
37c0 ff        rst     38h
37c1 ff        rst     38h
37c2 ff        rst     38h
37c3 ff        rst     38h
37c4 ff        rst     38h
37c5 ff        rst     38h
37c6 ff        rst     38h
37c7 ff        rst     38h
37c8 ff        rst     38h
37c9 ff        rst     38h
37ca ff        rst     38h
37cb ff        rst     38h
37cc ff        rst     38h
37cd ff        rst     38h
37ce ff        rst     38h
37cf ff        rst     38h
37d0 ff        rst     38h
37d1 ff        rst     38h
37d2 ff        rst     38h
37d3 ff        rst     38h
37d4 ff        rst     38h
37d5 ff        rst     38h
37d6 ff        rst     38h
37d7 ff        rst     38h
37d8 ff        rst     38h
37d9 ff        rst     38h
37da ff        rst     38h
37db ff        rst     38h
37dc ff        rst     38h
37dd ff        rst     38h
37de ff        rst     38h
37df ff        rst     38h
37e0 ff        rst     38h
37e1 ff        rst     38h
37e2 ff        rst     38h
37e3 ff        rst     38h
37e4 ff        rst     38h
37e5 ff        rst     38h
37e6 ff        rst     38h
37e7 ff        rst     38h
37e8 ff        rst     38h
37e9 ff        rst     38h
37ea ff        rst     38h
37eb ff        rst     38h
37ec ff        rst     38h
37ed ff        rst     38h
37ee ff        rst     38h
37ef ff        rst     38h
37f0 ff        rst     38h
37f1 ff        rst     38h
37f2 ff        rst     38h
37f3 ff        rst     38h
37f4 ff        rst     38h
37f5 ff        rst     38h
37f6 ff        rst     38h
37f7 ff        rst     38h
37f8 ff        rst     38h
37f9 ff        rst     38h
37fa ff        rst     38h
37fb ff        rst     38h
37fc ff        rst     38h
37fd ff        rst     38h
37fe ff        rst     38h
37ff ff        rst     38h
3800 ff        rst     38h
3801 ff        rst     38h
3802 ff        rst     38h
3803 ff        rst     38h
3804 ff        rst     38h
3805 ff        rst     38h
3806 ff        rst     38h
3807 ff        rst     38h
3808 ff        rst     38h
3809 ff        rst     38h
380a ff        rst     38h
380b ff        rst     38h
380c ff        rst     38h
380d ff        rst     38h
380e ff        rst     38h
380f ff        rst     38h
3810 ff        rst     38h
3811 ff        rst     38h
3812 ff        rst     38h
3813 ff        rst     38h
3814 ff        rst     38h
3815 ff        rst     38h
3816 ff        rst     38h
3817 ff        rst     38h
3818 ff        rst     38h
3819 ff        rst     38h
381a ff        rst     38h
381b ff        rst     38h
381c ff        rst     38h
381d ff        rst     38h
381e ff        rst     38h
381f ff        rst     38h
3820 ff        rst     38h
3821 ff        rst     38h
3822 ff        rst     38h
3823 ff        rst     38h
3824 ff        rst     38h
3825 ff        rst     38h
3826 ff        rst     38h
3827 ff        rst     38h
3828 ff        rst     38h
3829 ff        rst     38h
382a ff        rst     38h
382b ff        rst     38h
382c ff        rst     38h
382d ff        rst     38h
382e ff        rst     38h
382f ff        rst     38h
3830 ff        rst     38h
3831 ff        rst     38h
3832 ff        rst     38h
3833 ff        rst     38h
3834 ff        rst     38h
3835 ff        rst     38h
3836 ff        rst     38h
3837 ff        rst     38h
3838 ff        rst     38h
3839 ff        rst     38h
383a ff        rst     38h
383b ff        rst     38h
383c ff        rst     38h
383d ff        rst     38h
383e ff        rst     38h
383f ff        rst     38h
3840 ff        rst     38h
3841 ff        rst     38h
3842 ff        rst     38h
3843 ff        rst     38h
3844 ff        rst     38h
3845 ff        rst     38h
3846 ff        rst     38h
3847 ff        rst     38h
3848 ff        rst     38h
3849 ff        rst     38h
384a ff        rst     38h
384b ff        rst     38h
384c ff        rst     38h
384d ff        rst     38h
384e ff        rst     38h
384f ff        rst     38h
3850 ff        rst     38h
3851 ff        rst     38h
3852 ff        rst     38h
3853 ff        rst     38h
3854 ff        rst     38h
3855 ff        rst     38h
3856 ff        rst     38h
3857 ff        rst     38h
3858 ff        rst     38h
3859 ff        rst     38h
385a ff        rst     38h
385b ff        rst     38h
385c ff        rst     38h
385d ff        rst     38h
385e ff        rst     38h
385f ff        rst     38h
3860 ff        rst     38h
3861 ff        rst     38h
3862 ff        rst     38h
3863 ff        rst     38h
3864 ff        rst     38h
3865 ff        rst     38h
3866 ff        rst     38h
3867 ff        rst     38h
3868 ff        rst     38h
3869 ff        rst     38h
386a ff        rst     38h
386b ff        rst     38h
386c ff        rst     38h
386d ff        rst     38h
386e ff        rst     38h
386f ff        rst     38h
3870 ff        rst     38h
3871 ff        rst     38h
3872 ff        rst     38h
3873 ff        rst     38h
3874 ff        rst     38h
3875 ff        rst     38h
3876 ff        rst     38h
3877 ff        rst     38h
3878 ff        rst     38h
3879 ff        rst     38h
387a ff        rst     38h
387b ff        rst     38h
387c ff        rst     38h
387d ff        rst     38h
387e ff        rst     38h
387f ff        rst     38h
3880 ff        rst     38h
3881 ff        rst     38h
3882 ff        rst     38h
3883 ff        rst     38h
3884 ff        rst     38h
3885 ff        rst     38h
3886 ff        rst     38h
3887 ff        rst     38h
3888 ff        rst     38h
3889 ff        rst     38h
388a ff        rst     38h
388b ff        rst     38h
388c ff        rst     38h
388d ff        rst     38h
388e ff        rst     38h
388f ff        rst     38h
3890 ff        rst     38h
3891 ff        rst     38h
3892 ff        rst     38h
3893 ff        rst     38h
3894 ff        rst     38h
3895 ff        rst     38h
3896 ff        rst     38h
3897 ff        rst     38h
3898 ff        rst     38h
3899 ff        rst     38h
389a ff        rst     38h
389b ff        rst     38h
389c ff        rst     38h
389d ff        rst     38h
389e ff        rst     38h
389f ff        rst     38h
38a0 ff        rst     38h
38a1 ff        rst     38h
38a2 ff        rst     38h
38a3 ff        rst     38h
38a4 ff        rst     38h
38a5 ff        rst     38h
38a6 ff        rst     38h
38a7 ff        rst     38h
38a8 ff        rst     38h
38a9 ff        rst     38h
38aa ff        rst     38h
38ab ff        rst     38h
38ac ff        rst     38h
38ad ff        rst     38h
38ae ff        rst     38h
38af ff        rst     38h
38b0 ff        rst     38h
38b1 ff        rst     38h
38b2 ff        rst     38h
38b3 ff        rst     38h
38b4 ff        rst     38h
38b5 ff        rst     38h
38b6 ff        rst     38h
38b7 ff        rst     38h
38b8 ff        rst     38h
38b9 ff        rst     38h
38ba ff        rst     38h
38bb ff        rst     38h
38bc ff        rst     38h
38bd ff        rst     38h
38be ff        rst     38h
38bf ff        rst     38h
38c0 ff        rst     38h
38c1 ff        rst     38h
38c2 ff        rst     38h
38c3 ff        rst     38h
38c4 ff        rst     38h
38c5 ff        rst     38h
38c6 ff        rst     38h
38c7 ff        rst     38h
38c8 ff        rst     38h
38c9 ff        rst     38h
38ca ff        rst     38h
38cb ff        rst     38h
38cc ff        rst     38h
38cd ff        rst     38h
38ce ff        rst     38h
38cf ff        rst     38h
38d0 ff        rst     38h
38d1 ff        rst     38h
38d2 ff        rst     38h
38d3 ff        rst     38h
38d4 ff        rst     38h
38d5 ff        rst     38h
38d6 ff        rst     38h
38d7 ff        rst     38h
38d8 ff        rst     38h
38d9 ff        rst     38h
38da ff        rst     38h
38db ff        rst     38h
38dc ff        rst     38h
38dd ff        rst     38h
38de ff        rst     38h
38df ff        rst     38h
38e0 ff        rst     38h
38e1 ff        rst     38h
38e2 ff        rst     38h
38e3 ff        rst     38h
38e4 ff        rst     38h
38e5 ff        rst     38h
38e6 ff        rst     38h
38e7 ff        rst     38h
38e8 ff        rst     38h
38e9 ff        rst     38h
38ea ff        rst     38h
38eb ff        rst     38h
38ec ff        rst     38h
38ed ff        rst     38h
38ee ff        rst     38h
38ef ff        rst     38h
38f0 ff        rst     38h
38f1 ff        rst     38h
38f2 ff        rst     38h
38f3 ff        rst     38h
38f4 ff        rst     38h
38f5 ff        rst     38h
38f6 ff        rst     38h
38f7 ff        rst     38h
38f8 ff        rst     38h
38f9 ff        rst     38h
38fa ff        rst     38h
38fb ff        rst     38h
38fc ff        rst     38h
38fd ff        rst     38h
38fe ff        rst     38h
38ff ff        rst     38h
3900 ff        rst     38h
3901 ff        rst     38h
3902 ff        rst     38h
3903 ff        rst     38h
3904 ff        rst     38h
3905 ff        rst     38h
3906 ff        rst     38h
3907 ff        rst     38h
3908 ff        rst     38h
3909 ff        rst     38h
390a ff        rst     38h
390b ff        rst     38h
390c ff        rst     38h
390d ff        rst     38h
390e ff        rst     38h
390f ff        rst     38h
3910 ff        rst     38h
3911 ff        rst     38h
3912 ff        rst     38h
3913 ff        rst     38h
3914 ff        rst     38h
3915 ff        rst     38h
3916 ff        rst     38h
3917 ff        rst     38h
3918 ff        rst     38h
3919 ff        rst     38h
391a ff        rst     38h
391b ff        rst     38h
391c ff        rst     38h
391d ff        rst     38h
391e ff        rst     38h
391f ff        rst     38h
3920 ff        rst     38h
3921 ff        rst     38h
3922 ff        rst     38h
3923 ff        rst     38h
3924 ff        rst     38h
3925 ff        rst     38h
3926 ff        rst     38h
3927 ff        rst     38h
3928 ff        rst     38h
3929 ff        rst     38h
392a ff        rst     38h
392b ff        rst     38h
392c ff        rst     38h
392d ff        rst     38h
392e ff        rst     38h
392f ff        rst     38h
3930 ff        rst     38h
3931 ff        rst     38h
3932 ff        rst     38h
3933 ff        rst     38h
3934 ff        rst     38h
3935 ff        rst     38h
3936 ff        rst     38h
3937 ff        rst     38h
3938 ff        rst     38h
3939 ff        rst     38h
393a ff        rst     38h
393b ff        rst     38h
393c ff        rst     38h
393d ff        rst     38h
393e ff        rst     38h
393f ff        rst     38h
3940 ff        rst     38h
3941 ff        rst     38h
3942 ff        rst     38h
3943 ff        rst     38h
3944 ff        rst     38h
3945 ff        rst     38h
3946 ff        rst     38h
3947 ff        rst     38h
3948 ff        rst     38h
3949 ff        rst     38h
394a ff        rst     38h
394b ff        rst     38h
394c ff        rst     38h
394d ff        rst     38h
394e ff        rst     38h
394f ff        rst     38h
3950 ff        rst     38h
3951 ff        rst     38h
3952 ff        rst     38h
3953 ff        rst     38h
3954 ff        rst     38h
3955 ff        rst     38h
3956 ff        rst     38h
3957 ff        rst     38h
3958 ff        rst     38h
3959 ff        rst     38h
395a ff        rst     38h
395b ff        rst     38h
395c ff        rst     38h
395d ff        rst     38h
395e ff        rst     38h
395f ff        rst     38h
3960 ff        rst     38h
3961 ff        rst     38h
3962 ff        rst     38h
3963 ff        rst     38h
3964 ff        rst     38h
3965 ff        rst     38h
3966 ff        rst     38h
3967 ff        rst     38h
3968 ff        rst     38h
3969 ff        rst     38h
396a ff        rst     38h
396b ff        rst     38h
396c ff        rst     38h
396d ff        rst     38h
396e ff        rst     38h
396f ff        rst     38h
3970 ff        rst     38h
3971 ff        rst     38h
3972 ff        rst     38h
3973 ff        rst     38h
3974 ff        rst     38h
3975 ff        rst     38h
3976 ff        rst     38h
3977 ff        rst     38h
3978 ff        rst     38h
3979 ff        rst     38h
397a ff        rst     38h
397b ff        rst     38h
397c ff        rst     38h
397d ff        rst     38h
397e ff        rst     38h
397f ff        rst     38h
3980 ff        rst     38h
3981 ff        rst     38h
3982 ff        rst     38h
3983 ff        rst     38h
3984 ff        rst     38h
3985 ff        rst     38h
3986 ff        rst     38h
3987 ff        rst     38h
3988 ff        rst     38h
3989 ff        rst     38h
398a ff        rst     38h
398b ff        rst     38h
398c ff        rst     38h
398d ff        rst     38h
398e ff        rst     38h
398f ff        rst     38h
3990 ff        rst     38h
3991 ff        rst     38h
3992 ff        rst     38h
3993 ff        rst     38h
3994 ff        rst     38h
3995 ff        rst     38h
3996 ff        rst     38h
3997 ff        rst     38h
3998 ff        rst     38h
3999 ff        rst     38h
399a ff        rst     38h
399b ff        rst     38h
399c ff        rst     38h
399d ff        rst     38h
399e ff        rst     38h
399f ff        rst     38h
39a0 ff        rst     38h
39a1 ff        rst     38h
39a2 ff        rst     38h
39a3 ff        rst     38h
39a4 ff        rst     38h
39a5 ff        rst     38h
39a6 ff        rst     38h
39a7 ff        rst     38h
39a8 ff        rst     38h
39a9 ff        rst     38h
39aa ff        rst     38h
39ab ff        rst     38h
39ac ff        rst     38h
39ad ff        rst     38h
39ae ff        rst     38h
39af ff        rst     38h
39b0 ff        rst     38h
39b1 ff        rst     38h
39b2 ff        rst     38h
39b3 ff        rst     38h
39b4 ff        rst     38h
39b5 ff        rst     38h
39b6 ff        rst     38h
39b7 ff        rst     38h
39b8 ff        rst     38h
39b9 ff        rst     38h
39ba ff        rst     38h
39bb ff        rst     38h
39bc ff        rst     38h
39bd ff        rst     38h
39be ff        rst     38h
39bf ff        rst     38h
39c0 ff        rst     38h
39c1 ff        rst     38h
39c2 ff        rst     38h
39c3 ff        rst     38h
39c4 ff        rst     38h
39c5 ff        rst     38h
39c6 ff        rst     38h
39c7 ff        rst     38h
39c8 ff        rst     38h
39c9 ff        rst     38h
39ca ff        rst     38h
39cb ff        rst     38h
39cc ff        rst     38h
39cd ff        rst     38h
39ce ff        rst     38h
39cf ff        rst     38h
39d0 ff        rst     38h
39d1 ff        rst     38h
39d2 ff        rst     38h
39d3 ff        rst     38h
39d4 ff        rst     38h
39d5 ff        rst     38h
39d6 ff        rst     38h
39d7 ff        rst     38h
39d8 ff        rst     38h
39d9 ff        rst     38h
39da ff        rst     38h
39db ff        rst     38h
39dc ff        rst     38h
39dd ff        rst     38h
39de ff        rst     38h
39df ff        rst     38h
39e0 ff        rst     38h
39e1 ff        rst     38h
39e2 ff        rst     38h
39e3 ff        rst     38h
39e4 ff        rst     38h
39e5 ff        rst     38h
39e6 ff        rst     38h
39e7 ff        rst     38h
39e8 ff        rst     38h
39e9 ff        rst     38h
39ea ff        rst     38h
39eb ff        rst     38h
39ec ff        rst     38h
39ed ff        rst     38h
39ee ff        rst     38h
39ef ff        rst     38h
39f0 ff        rst     38h
39f1 ff        rst     38h
39f2 ff        rst     38h
39f3 ff        rst     38h
39f4 ff        rst     38h
39f5 ff        rst     38h
39f6 ff        rst     38h
39f7 ff        rst     38h
39f8 ff        rst     38h
39f9 ff        rst     38h
39fa ff        rst     38h
39fb ff        rst     38h
39fc ff        rst     38h
39fd ff        rst     38h
39fe ff        rst     38h
39ff ff        rst     38h
3a00 ff        rst     38h
3a01 ff        rst     38h
3a02 ff        rst     38h
3a03 ff        rst     38h
3a04 ff        rst     38h
3a05 ff        rst     38h
3a06 ff        rst     38h
3a07 ff        rst     38h
3a08 ff        rst     38h
3a09 ff        rst     38h
3a0a ff        rst     38h
3a0b ff        rst     38h
3a0c ff        rst     38h
3a0d ff        rst     38h
3a0e ff        rst     38h
3a0f ff        rst     38h
3a10 ff        rst     38h
3a11 ff        rst     38h
3a12 ff        rst     38h
3a13 ff        rst     38h
3a14 ff        rst     38h
3a15 ff        rst     38h
3a16 ff        rst     38h
3a17 ff        rst     38h
3a18 ff        rst     38h
3a19 ff        rst     38h
3a1a ff        rst     38h
3a1b ff        rst     38h
3a1c ff        rst     38h
3a1d ff        rst     38h
3a1e ff        rst     38h
3a1f ff        rst     38h
3a20 ff        rst     38h
3a21 ff        rst     38h
3a22 ff        rst     38h
3a23 ff        rst     38h
3a24 ff        rst     38h
3a25 ff        rst     38h
3a26 ff        rst     38h
3a27 ff        rst     38h
3a28 ff        rst     38h
3a29 ff        rst     38h
3a2a ff        rst     38h
3a2b ff        rst     38h
3a2c ff        rst     38h
3a2d ff        rst     38h
3a2e ff        rst     38h
3a2f ff        rst     38h
3a30 ff        rst     38h
3a31 ff        rst     38h
3a32 ff        rst     38h
3a33 ff        rst     38h
3a34 ff        rst     38h
3a35 ff        rst     38h
3a36 ff        rst     38h
3a37 ff        rst     38h
3a38 ff        rst     38h
3a39 ff        rst     38h
3a3a ff        rst     38h
3a3b ff        rst     38h
3a3c ff        rst     38h
3a3d ff        rst     38h
3a3e ff        rst     38h
3a3f ff        rst     38h
3a40 ff        rst     38h
3a41 ff        rst     38h
3a42 ff        rst     38h
3a43 ff        rst     38h
3a44 ff        rst     38h
3a45 ff        rst     38h
3a46 ff        rst     38h
3a47 ff        rst     38h
3a48 ff        rst     38h
3a49 ff        rst     38h
3a4a ff        rst     38h
3a4b ff        rst     38h
3a4c ff        rst     38h
3a4d ff        rst     38h
3a4e ff        rst     38h
3a4f ff        rst     38h
3a50 ff        rst     38h
3a51 ff        rst     38h
3a52 ff        rst     38h
3a53 ff        rst     38h
3a54 ff        rst     38h
3a55 ff        rst     38h
3a56 ff        rst     38h
3a57 ff        rst     38h
3a58 ff        rst     38h
3a59 ff        rst     38h
3a5a ff        rst     38h
3a5b ff        rst     38h
3a5c ff        rst     38h
3a5d ff        rst     38h
3a5e ff        rst     38h
3a5f ff        rst     38h
3a60 ff        rst     38h
3a61 ff        rst     38h
3a62 ff        rst     38h
3a63 ff        rst     38h
3a64 ff        rst     38h
3a65 ff        rst     38h
3a66 ff        rst     38h
3a67 ff        rst     38h
3a68 ff        rst     38h
3a69 ff        rst     38h
3a6a ff        rst     38h
3a6b ff        rst     38h
3a6c ff        rst     38h
3a6d ff        rst     38h
3a6e ff        rst     38h
3a6f ff        rst     38h
3a70 ff        rst     38h
3a71 ff        rst     38h
3a72 ff        rst     38h
3a73 ff        rst     38h
3a74 ff        rst     38h
3a75 ff        rst     38h
3a76 ff        rst     38h
3a77 ff        rst     38h
3a78 ff        rst     38h
3a79 ff        rst     38h
3a7a ff        rst     38h
3a7b ff        rst     38h
3a7c ff        rst     38h
3a7d ff        rst     38h
3a7e ff        rst     38h
3a7f ff        rst     38h
3a80 ff        rst     38h
3a81 ff        rst     38h
3a82 ff        rst     38h
3a83 ff        rst     38h
3a84 ff        rst     38h
3a85 ff        rst     38h
3a86 ff        rst     38h
3a87 ff        rst     38h
3a88 ff        rst     38h
3a89 ff        rst     38h
3a8a ff        rst     38h
3a8b ff        rst     38h
3a8c ff        rst     38h
3a8d ff        rst     38h
3a8e ff        rst     38h
3a8f ff        rst     38h
3a90 ff        rst     38h
3a91 ff        rst     38h
3a92 ff        rst     38h
3a93 ff        rst     38h
3a94 ff        rst     38h
3a95 ff        rst     38h
3a96 ff        rst     38h
3a97 ff        rst     38h
3a98 ff        rst     38h
3a99 ff        rst     38h
3a9a ff        rst     38h
3a9b ff        rst     38h
3a9c ff        rst     38h
3a9d ff        rst     38h
3a9e ff        rst     38h
3a9f ff        rst     38h
3aa0 ff        rst     38h
3aa1 ff        rst     38h
3aa2 ff        rst     38h
3aa3 ff        rst     38h
3aa4 ff        rst     38h
3aa5 ff        rst     38h
3aa6 ff        rst     38h
3aa7 ff        rst     38h
3aa8 ff        rst     38h
3aa9 ff        rst     38h
3aaa ff        rst     38h
3aab ff        rst     38h
3aac ff        rst     38h
3aad ff        rst     38h
3aae ff        rst     38h
3aaf ff        rst     38h
3ab0 ff        rst     38h
3ab1 ff        rst     38h
3ab2 ff        rst     38h
3ab3 ff        rst     38h
3ab4 ff        rst     38h
3ab5 ff        rst     38h
3ab6 ff        rst     38h
3ab7 ff        rst     38h
3ab8 ff        rst     38h
3ab9 ff        rst     38h
3aba ff        rst     38h
3abb ff        rst     38h
3abc ff        rst     38h
3abd ff        rst     38h
3abe ff        rst     38h
3abf ff        rst     38h
3ac0 ff        rst     38h
3ac1 ff        rst     38h
3ac2 ff        rst     38h
3ac3 ff        rst     38h
3ac4 ff        rst     38h
3ac5 ff        rst     38h
3ac6 ff        rst     38h
3ac7 ff        rst     38h
3ac8 ff        rst     38h
3ac9 ff        rst     38h
3aca ff        rst     38h
3acb ff        rst     38h
3acc ff        rst     38h
3acd ff        rst     38h
3ace ff        rst     38h
3acf ff        rst     38h
3ad0 ff        rst     38h
3ad1 ff        rst     38h
3ad2 ff        rst     38h
3ad3 ff        rst     38h
3ad4 ff        rst     38h
3ad5 ff        rst     38h
3ad6 ff        rst     38h
3ad7 ff        rst     38h
3ad8 ff        rst     38h
3ad9 ff        rst     38h
3ada ff        rst     38h
3adb ff        rst     38h
3adc ff        rst     38h
3add ff        rst     38h
3ade ff        rst     38h
3adf ff        rst     38h
3ae0 ff        rst     38h
3ae1 ff        rst     38h
3ae2 ff        rst     38h
3ae3 ff        rst     38h
3ae4 ff        rst     38h
3ae5 ff        rst     38h
3ae6 ff        rst     38h
3ae7 ff        rst     38h
3ae8 ff        rst     38h
3ae9 ff        rst     38h
3aea ff        rst     38h
3aeb ff        rst     38h
3aec ff        rst     38h
3aed ff        rst     38h
3aee ff        rst     38h
3aef ff        rst     38h
3af0 ff        rst     38h
3af1 ff        rst     38h
3af2 ff        rst     38h
3af3 ff        rst     38h
3af4 ff        rst     38h
3af5 ff        rst     38h
3af6 ff        rst     38h
3af7 ff        rst     38h
3af8 ff        rst     38h
3af9 ff        rst     38h
3afa ff        rst     38h
3afb ff        rst     38h
3afc ff        rst     38h
3afd ff        rst     38h
3afe ff        rst     38h
3aff ff        rst     38h
3b00 ff        rst     38h
3b01 ff        rst     38h
3b02 ff        rst     38h
3b03 ff        rst     38h
3b04 ff        rst     38h
3b05 ff        rst     38h
3b06 ff        rst     38h
3b07 ff        rst     38h
3b08 ff        rst     38h
3b09 ff        rst     38h
3b0a ff        rst     38h
3b0b ff        rst     38h
3b0c ff        rst     38h
3b0d ff        rst     38h
3b0e ff        rst     38h
3b0f ff        rst     38h
3b10 ff        rst     38h
3b11 ff        rst     38h
3b12 ff        rst     38h
3b13 ff        rst     38h
3b14 ff        rst     38h
3b15 ff        rst     38h
3b16 ff        rst     38h
3b17 ff        rst     38h
3b18 ff        rst     38h
3b19 ff        rst     38h
3b1a ff        rst     38h
3b1b ff        rst     38h
3b1c ff        rst     38h
3b1d ff        rst     38h
3b1e ff        rst     38h
3b1f ff        rst     38h
3b20 ff        rst     38h
3b21 ff        rst     38h
3b22 ff        rst     38h
3b23 ff        rst     38h
3b24 ff        rst     38h
3b25 ff        rst     38h
3b26 ff        rst     38h
3b27 ff        rst     38h
3b28 ff        rst     38h
3b29 ff        rst     38h
3b2a ff        rst     38h
3b2b ff        rst     38h
3b2c ff        rst     38h
3b2d ff        rst     38h
3b2e ff        rst     38h
3b2f ff        rst     38h
3b30 ff        rst     38h
3b31 ff        rst     38h
3b32 ff        rst     38h
3b33 ff        rst     38h
3b34 ff        rst     38h
3b35 ff        rst     38h
3b36 ff        rst     38h
3b37 ff        rst     38h
3b38 ff        rst     38h
3b39 ff        rst     38h
3b3a ff        rst     38h
3b3b ff        rst     38h
3b3c ff        rst     38h
3b3d ff        rst     38h
3b3e ff        rst     38h
3b3f ff        rst     38h
3b40 ff        rst     38h
3b41 ff        rst     38h
3b42 ff        rst     38h
3b43 ff        rst     38h
3b44 ff        rst     38h
3b45 ff        rst     38h
3b46 ff        rst     38h
3b47 ff        rst     38h
3b48 ff        rst     38h
3b49 ff        rst     38h
3b4a ff        rst     38h
3b4b ff        rst     38h
3b4c ff        rst     38h
3b4d ff        rst     38h
3b4e ff        rst     38h
3b4f ff        rst     38h
3b50 ff        rst     38h
3b51 ff        rst     38h
3b52 ff        rst     38h
3b53 ff        rst     38h
3b54 ff        rst     38h
3b55 ff        rst     38h
3b56 ff        rst     38h
3b57 ff        rst     38h
3b58 ff        rst     38h
3b59 ff        rst     38h
3b5a ff        rst     38h
3b5b ff        rst     38h
3b5c ff        rst     38h
3b5d ff        rst     38h
3b5e ff        rst     38h
3b5f ff        rst     38h
3b60 ff        rst     38h
3b61 ff        rst     38h
3b62 ff        rst     38h
3b63 ff        rst     38h
3b64 ff        rst     38h
3b65 ff        rst     38h
3b66 ff        rst     38h
3b67 ff        rst     38h
3b68 ff        rst     38h
3b69 ff        rst     38h
3b6a ff        rst     38h
3b6b ff        rst     38h
3b6c ff        rst     38h
3b6d ff        rst     38h
3b6e ff        rst     38h
3b6f ff        rst     38h
3b70 ff        rst     38h
3b71 ff        rst     38h
3b72 ff        rst     38h
3b73 ff        rst     38h
3b74 ff        rst     38h
3b75 ff        rst     38h
3b76 ff        rst     38h
3b77 ff        rst     38h
3b78 ff        rst     38h
3b79 ff        rst     38h
3b7a ff        rst     38h
3b7b ff        rst     38h
3b7c ff        rst     38h
3b7d ff        rst     38h
3b7e ff        rst     38h
3b7f ff        rst     38h
3b80 ff        rst     38h
3b81 ff        rst     38h
3b82 ff        rst     38h
3b83 ff        rst     38h
3b84 ff        rst     38h
3b85 ff        rst     38h
3b86 ff        rst     38h
3b87 ff        rst     38h
3b88 ff        rst     38h
3b89 ff        rst     38h
3b8a ff        rst     38h
3b8b ff        rst     38h
3b8c ff        rst     38h
3b8d ff        rst     38h
3b8e ff        rst     38h
3b8f ff        rst     38h
3b90 ff        rst     38h
3b91 ff        rst     38h
3b92 ff        rst     38h
3b93 ff        rst     38h
3b94 ff        rst     38h
3b95 ff        rst     38h
3b96 ff        rst     38h
3b97 ff        rst     38h
3b98 ff        rst     38h
3b99 ff        rst     38h
3b9a ff        rst     38h
3b9b ff        rst     38h
3b9c ff        rst     38h
3b9d ff        rst     38h
3b9e ff        rst     38h
3b9f ff        rst     38h
3ba0 ff        rst     38h
3ba1 ff        rst     38h
3ba2 ff        rst     38h
3ba3 ff        rst     38h
3ba4 ff        rst     38h
3ba5 ff        rst     38h
3ba6 ff        rst     38h
3ba7 ff        rst     38h
3ba8 ff        rst     38h
3ba9 ff        rst     38h
3baa ff        rst     38h
3bab ff        rst     38h
3bac ff        rst     38h
3bad ff        rst     38h
3bae ff        rst     38h
3baf ff        rst     38h
3bb0 ff        rst     38h
3bb1 ff        rst     38h
3bb2 ff        rst     38h
3bb3 ff        rst     38h
3bb4 ff        rst     38h
3bb5 ff        rst     38h
3bb6 ff        rst     38h
3bb7 ff        rst     38h
3bb8 ff        rst     38h
3bb9 ff        rst     38h
3bba ff        rst     38h
3bbb ff        rst     38h
3bbc ff        rst     38h
3bbd ff        rst     38h
3bbe ff        rst     38h
3bbf ff        rst     38h
3bc0 ff        rst     38h
3bc1 ff        rst     38h
3bc2 ff        rst     38h
3bc3 ff        rst     38h
3bc4 ff        rst     38h
3bc5 ff        rst     38h
3bc6 ff        rst     38h
3bc7 ff        rst     38h
3bc8 ff        rst     38h
3bc9 ff        rst     38h
3bca ff        rst     38h
3bcb ff        rst     38h
3bcc ff        rst     38h
3bcd ff        rst     38h
3bce ff        rst     38h
3bcf ff        rst     38h
3bd0 ff        rst     38h
3bd1 ff        rst     38h
3bd2 ff        rst     38h
3bd3 ff        rst     38h
3bd4 ff        rst     38h
3bd5 ff        rst     38h
3bd6 ff        rst     38h
3bd7 ff        rst     38h
3bd8 ff        rst     38h
3bd9 ff        rst     38h
3bda ff        rst     38h
3bdb ff        rst     38h
3bdc ff        rst     38h
3bdd ff        rst     38h
3bde ff        rst     38h
3bdf ff        rst     38h
3be0 ff        rst     38h
3be1 ff        rst     38h
3be2 ff        rst     38h
3be3 ff        rst     38h
3be4 ff        rst     38h
3be5 ff        rst     38h
3be6 ff        rst     38h
3be7 ff        rst     38h
3be8 ff        rst     38h
3be9 ff        rst     38h
3bea ff        rst     38h
3beb ff        rst     38h
3bec ff        rst     38h
3bed ff        rst     38h
3bee ff        rst     38h
3bef ff        rst     38h
3bf0 ff        rst     38h
3bf1 ff        rst     38h
3bf2 ff        rst     38h
3bf3 ff        rst     38h
3bf4 ff        rst     38h
3bf5 ff        rst     38h
3bf6 ff        rst     38h
3bf7 ff        rst     38h
3bf8 ff        rst     38h
3bf9 ff        rst     38h
3bfa ff        rst     38h
3bfb ff        rst     38h
3bfc ff        rst     38h
3bfd ff        rst     38h
3bfe ff        rst     38h
3bff ff        rst     38h
3c00 ff        rst     38h
3c01 ff        rst     38h
3c02 ff        rst     38h
3c03 ff        rst     38h
3c04 ff        rst     38h
3c05 ff        rst     38h
3c06 ff        rst     38h
3c07 ff        rst     38h
3c08 ff        rst     38h
3c09 ff        rst     38h
3c0a ff        rst     38h
3c0b ff        rst     38h
3c0c ff        rst     38h
3c0d ff        rst     38h
3c0e ff        rst     38h
3c0f ff        rst     38h
3c10 ff        rst     38h
3c11 ff        rst     38h
3c12 ff        rst     38h
3c13 ff        rst     38h
3c14 ff        rst     38h
3c15 ff        rst     38h
3c16 ff        rst     38h
3c17 ff        rst     38h
3c18 ff        rst     38h
3c19 ff        rst     38h
3c1a ff        rst     38h
3c1b ff        rst     38h
3c1c ff        rst     38h
3c1d ff        rst     38h
3c1e ff        rst     38h
3c1f ff        rst     38h
3c20 ff        rst     38h
3c21 ff        rst     38h
3c22 ff        rst     38h
3c23 ff        rst     38h
3c24 ff        rst     38h
3c25 ff        rst     38h
3c26 ff        rst     38h
3c27 ff        rst     38h
3c28 ff        rst     38h
3c29 ff        rst     38h
3c2a ff        rst     38h
3c2b ff        rst     38h
3c2c ff        rst     38h
3c2d ff        rst     38h
3c2e ff        rst     38h
3c2f ff        rst     38h
3c30 ff        rst     38h
3c31 ff        rst     38h
3c32 ff        rst     38h
3c33 ff        rst     38h
3c34 ff        rst     38h
3c35 ff        rst     38h
3c36 ff        rst     38h
3c37 ff        rst     38h
3c38 ff        rst     38h
3c39 ff        rst     38h
3c3a ff        rst     38h
3c3b ff        rst     38h
3c3c ff        rst     38h
3c3d ff        rst     38h
3c3e ff        rst     38h
3c3f ff        rst     38h
3c40 ff        rst     38h
3c41 ff        rst     38h
3c42 ff        rst     38h
3c43 ff        rst     38h
3c44 ff        rst     38h
3c45 ff        rst     38h
3c46 ff        rst     38h
3c47 ff        rst     38h
3c48 ff        rst     38h
3c49 ff        rst     38h
3c4a ff        rst     38h
3c4b ff        rst     38h
3c4c ff        rst     38h
3c4d ff        rst     38h
3c4e ff        rst     38h
3c4f ff        rst     38h
3c50 ff        rst     38h
3c51 ff        rst     38h
3c52 ff        rst     38h
3c53 ff        rst     38h
3c54 ff        rst     38h
3c55 ff        rst     38h
3c56 ff        rst     38h
3c57 ff        rst     38h
3c58 ff        rst     38h
3c59 ff        rst     38h
3c5a ff        rst     38h
3c5b ff        rst     38h
3c5c ff        rst     38h
3c5d ff        rst     38h
3c5e ff        rst     38h
3c5f ff        rst     38h
3c60 ff        rst     38h
3c61 ff        rst     38h
3c62 ff        rst     38h
3c63 ff        rst     38h
3c64 ff        rst     38h
3c65 ff        rst     38h
3c66 ff        rst     38h
3c67 ff        rst     38h
3c68 ff        rst     38h
3c69 ff        rst     38h
3c6a ff        rst     38h
3c6b ff        rst     38h
3c6c ff        rst     38h
3c6d ff        rst     38h
3c6e ff        rst     38h
3c6f ff        rst     38h
3c70 ff        rst     38h
3c71 ff        rst     38h
3c72 ff        rst     38h
3c73 ff        rst     38h
3c74 ff        rst     38h
3c75 ff        rst     38h
3c76 ff        rst     38h
3c77 ff        rst     38h
3c78 ff        rst     38h
3c79 ff        rst     38h
3c7a ff        rst     38h
3c7b ff        rst     38h
3c7c ff        rst     38h
3c7d ff        rst     38h
3c7e ff        rst     38h
3c7f ff        rst     38h
3c80 ff        rst     38h
3c81 ff        rst     38h
3c82 ff        rst     38h
3c83 ff        rst     38h
3c84 ff        rst     38h
3c85 ff        rst     38h
3c86 ff        rst     38h
3c87 ff        rst     38h
3c88 ff        rst     38h
3c89 ff        rst     38h
3c8a ff        rst     38h
3c8b ff        rst     38h
3c8c ff        rst     38h
3c8d ff        rst     38h
3c8e ff        rst     38h
3c8f ff        rst     38h
3c90 ff        rst     38h
3c91 ff        rst     38h
3c92 ff        rst     38h
3c93 ff        rst     38h
3c94 ff        rst     38h
3c95 ff        rst     38h
3c96 ff        rst     38h
3c97 ff        rst     38h
3c98 ff        rst     38h
3c99 ff        rst     38h
3c9a ff        rst     38h
3c9b ff        rst     38h
3c9c ff        rst     38h
3c9d ff        rst     38h
3c9e ff        rst     38h
3c9f ff        rst     38h
3ca0 ff        rst     38h
3ca1 ff        rst     38h
3ca2 ff        rst     38h
3ca3 ff        rst     38h
3ca4 ff        rst     38h
3ca5 ff        rst     38h
3ca6 ff        rst     38h
3ca7 ff        rst     38h
3ca8 ff        rst     38h
3ca9 ff        rst     38h
3caa ff        rst     38h
3cab ff        rst     38h
3cac ff        rst     38h
3cad ff        rst     38h
3cae ff        rst     38h
3caf ff        rst     38h
3cb0 ff        rst     38h
3cb1 ff        rst     38h
3cb2 ff        rst     38h
3cb3 ff        rst     38h
3cb4 ff        rst     38h
3cb5 ff        rst     38h
3cb6 ff        rst     38h
3cb7 ff        rst     38h
3cb8 ff        rst     38h
3cb9 ff        rst     38h
3cba ff        rst     38h
3cbb ff        rst     38h
3cbc ff        rst     38h
3cbd ff        rst     38h
3cbe ff        rst     38h
3cbf ff        rst     38h
3cc0 ff        rst     38h
3cc1 ff        rst     38h
3cc2 ff        rst     38h
3cc3 ff        rst     38h
3cc4 ff        rst     38h
3cc5 ff        rst     38h
3cc6 ff        rst     38h
3cc7 ff        rst     38h
3cc8 ff        rst     38h
3cc9 ff        rst     38h
3cca ff        rst     38h
3ccb ff        rst     38h
3ccc ff        rst     38h
3ccd ff        rst     38h
3cce ff        rst     38h
3ccf ff        rst     38h
3cd0 ff        rst     38h
3cd1 ff        rst     38h
3cd2 ff        rst     38h
3cd3 ff        rst     38h
3cd4 ff        rst     38h
3cd5 ff        rst     38h
3cd6 ff        rst     38h
3cd7 ff        rst     38h
3cd8 ff        rst     38h
3cd9 ff        rst     38h
3cda ff        rst     38h
3cdb ff        rst     38h
3cdc ff        rst     38h
3cdd ff        rst     38h
3cde ff        rst     38h
3cdf ff        rst     38h
3ce0 ff        rst     38h
3ce1 ff        rst     38h
3ce2 ff        rst     38h
3ce3 ff        rst     38h
3ce4 ff        rst     38h
3ce5 ff        rst     38h
3ce6 ff        rst     38h
3ce7 ff        rst     38h
3ce8 ff        rst     38h
3ce9 ff        rst     38h
3cea ff        rst     38h
3ceb ff        rst     38h
3cec ff        rst     38h
3ced ff        rst     38h
3cee ff        rst     38h
3cef ff        rst     38h
3cf0 ff        rst     38h
3cf1 ff        rst     38h
3cf2 ff        rst     38h
3cf3 ff        rst     38h
3cf4 ff        rst     38h
3cf5 ff        rst     38h
3cf6 ff        rst     38h
3cf7 ff        rst     38h
3cf8 ff        rst     38h
3cf9 ff        rst     38h
3cfa ff        rst     38h
3cfb ff        rst     38h
3cfc ff        rst     38h
3cfd ff        rst     38h
3cfe ff        rst     38h
3cff ff        rst     38h
3d00 ff        rst     38h
3d01 ff        rst     38h
3d02 ff        rst     38h
3d03 ff        rst     38h
3d04 ff        rst     38h
3d05 ff        rst     38h
3d06 ff        rst     38h
3d07 ff        rst     38h
3d08 ff        rst     38h
3d09 ff        rst     38h
3d0a ff        rst     38h
3d0b ff        rst     38h
3d0c ff        rst     38h
3d0d ff        rst     38h
3d0e ff        rst     38h
3d0f ff        rst     38h
3d10 ff        rst     38h
3d11 ff        rst     38h
3d12 ff        rst     38h
3d13 ff        rst     38h
3d14 ff        rst     38h
3d15 ff        rst     38h
3d16 ff        rst     38h
3d17 ff        rst     38h
3d18 ff        rst     38h
3d19 ff        rst     38h
3d1a ff        rst     38h
3d1b ff        rst     38h
3d1c ff        rst     38h
3d1d ff        rst     38h
3d1e ff        rst     38h
3d1f ff        rst     38h
3d20 ff        rst     38h
3d21 ff        rst     38h
3d22 ff        rst     38h
3d23 ff        rst     38h
3d24 ff        rst     38h
3d25 ff        rst     38h
3d26 ff        rst     38h
3d27 ff        rst     38h
3d28 ff        rst     38h
3d29 ff        rst     38h
3d2a ff        rst     38h
3d2b ff        rst     38h
3d2c ff        rst     38h
3d2d ff        rst     38h
3d2e ff        rst     38h
3d2f ff        rst     38h
3d30 ff        rst     38h
3d31 ff        rst     38h
3d32 ff        rst     38h
3d33 ff        rst     38h
3d34 ff        rst     38h
3d35 ff        rst     38h
3d36 ff        rst     38h
3d37 ff        rst     38h
3d38 ff        rst     38h
3d39 ff        rst     38h
3d3a ff        rst     38h
3d3b ff        rst     38h
3d3c ff        rst     38h
3d3d ff        rst     38h
3d3e ff        rst     38h
3d3f ff        rst     38h
3d40 ff        rst     38h
3d41 ff        rst     38h
3d42 ff        rst     38h
3d43 ff        rst     38h
3d44 ff        rst     38h
3d45 ff        rst     38h
3d46 ff        rst     38h
3d47 ff        rst     38h
3d48 ff        rst     38h
3d49 ff        rst     38h
3d4a ff        rst     38h
3d4b ff        rst     38h
3d4c ff        rst     38h
3d4d ff        rst     38h
3d4e ff        rst     38h
3d4f ff        rst     38h
3d50 ff        rst     38h
3d51 ff        rst     38h
3d52 ff        rst     38h
3d53 ff        rst     38h
3d54 ff        rst     38h
3d55 ff        rst     38h
3d56 ff        rst     38h
3d57 ff        rst     38h
3d58 ff        rst     38h
3d59 ff        rst     38h
3d5a ff        rst     38h
3d5b ff        rst     38h
3d5c ff        rst     38h
3d5d ff        rst     38h
3d5e ff        rst     38h
3d5f ff        rst     38h
3d60 ff        rst     38h
3d61 ff        rst     38h
3d62 ff        rst     38h
3d63 ff        rst     38h
3d64 ff        rst     38h
3d65 ff        rst     38h
3d66 ff        rst     38h
3d67 ff        rst     38h
3d68 ff        rst     38h
3d69 ff        rst     38h
3d6a ff        rst     38h
3d6b ff        rst     38h
3d6c ff        rst     38h
3d6d ff        rst     38h
3d6e ff        rst     38h
3d6f ff        rst     38h
3d70 ff        rst     38h
3d71 ff        rst     38h
3d72 ff        rst     38h
3d73 ff        rst     38h
3d74 ff        rst     38h
3d75 ff        rst     38h
3d76 ff        rst     38h
3d77 ff        rst     38h
3d78 ff        rst     38h
3d79 ff        rst     38h
3d7a ff        rst     38h
3d7b ff        rst     38h
3d7c ff        rst     38h
3d7d ff        rst     38h
3d7e ff        rst     38h
3d7f ff        rst     38h
3d80 ff        rst     38h
3d81 ff        rst     38h
3d82 ff        rst     38h
3d83 ff        rst     38h
3d84 ff        rst     38h
3d85 ff        rst     38h
3d86 ff        rst     38h
3d87 ff        rst     38h
3d88 ff        rst     38h
3d89 ff        rst     38h
3d8a ff        rst     38h
3d8b ff        rst     38h
3d8c ff        rst     38h
3d8d ff        rst     38h
3d8e ff        rst     38h
3d8f ff        rst     38h
3d90 ff        rst     38h
3d91 ff        rst     38h
3d92 ff        rst     38h
3d93 ff        rst     38h
3d94 ff        rst     38h
3d95 ff        rst     38h
3d96 ff        rst     38h
3d97 ff        rst     38h
3d98 ff        rst     38h
3d99 ff        rst     38h
3d9a ff        rst     38h
3d9b ff        rst     38h
3d9c ff        rst     38h
3d9d ff        rst     38h
3d9e ff        rst     38h
3d9f ff        rst     38h
3da0 ff        rst     38h
3da1 ff        rst     38h
3da2 ff        rst     38h
3da3 ff        rst     38h
3da4 ff        rst     38h
3da5 ff        rst     38h
3da6 ff        rst     38h
3da7 ff        rst     38h
3da8 ff        rst     38h
3da9 ff        rst     38h
3daa ff        rst     38h
3dab ff        rst     38h
3dac ff        rst     38h
3dad ff        rst     38h
3dae ff        rst     38h
3daf ff        rst     38h
3db0 ff        rst     38h
3db1 ff        rst     38h
3db2 ff        rst     38h
3db3 ff        rst     38h
3db4 ff        rst     38h
3db5 ff        rst     38h
3db6 ff        rst     38h
3db7 ff        rst     38h
3db8 ff        rst     38h
3db9 ff        rst     38h
3dba ff        rst     38h
3dbb ff        rst     38h
3dbc ff        rst     38h
3dbd ff        rst     38h
3dbe ff        rst     38h
3dbf ff        rst     38h
3dc0 ff        rst     38h
3dc1 ff        rst     38h
3dc2 ff        rst     38h
3dc3 ff        rst     38h
3dc4 ff        rst     38h
3dc5 ff        rst     38h
3dc6 ff        rst     38h
3dc7 ff        rst     38h
3dc8 ff        rst     38h
3dc9 ff        rst     38h
3dca ff        rst     38h
3dcb ff        rst     38h
3dcc ff        rst     38h
3dcd ff        rst     38h
3dce ff        rst     38h
3dcf ff        rst     38h
3dd0 ff        rst     38h
3dd1 ff        rst     38h
3dd2 ff        rst     38h
3dd3 ff        rst     38h
3dd4 ff        rst     38h
3dd5 ff        rst     38h
3dd6 ff        rst     38h
3dd7 ff        rst     38h
3dd8 ff        rst     38h
3dd9 ff        rst     38h
3dda ff        rst     38h
3ddb ff        rst     38h
3ddc ff        rst     38h
3ddd ff        rst     38h
3dde ff        rst     38h
3ddf ff        rst     38h
3de0 ff        rst     38h
3de1 ff        rst     38h
3de2 ff        rst     38h
3de3 ff        rst     38h
3de4 ff        rst     38h
3de5 ff        rst     38h
3de6 ff        rst     38h
3de7 ff        rst     38h
3de8 ff        rst     38h
3de9 ff        rst     38h
3dea ff        rst     38h
3deb ff        rst     38h
3dec ff        rst     38h
3ded ff        rst     38h
3dee ff        rst     38h
3def ff        rst     38h
3df0 ff        rst     38h
3df1 ff        rst     38h
3df2 ff        rst     38h
3df3 ff        rst     38h
3df4 ff        rst     38h
3df5 ff        rst     38h
3df6 ff        rst     38h
3df7 ff        rst     38h
3df8 ff        rst     38h
3df9 ff        rst     38h
3dfa ff        rst     38h
3dfb ff        rst     38h
3dfc ff        rst     38h
3dfd ff        rst     38h
3dfe ff        rst     38h
3dff ff        rst     38h
3e00 ff        rst     38h
3e01 ff        rst     38h
3e02 ff        rst     38h
3e03 ff        rst     38h
3e04 ff        rst     38h
3e05 ff        rst     38h
3e06 ff        rst     38h
3e07 ff        rst     38h
3e08 ff        rst     38h
3e09 ff        rst     38h
3e0a ff        rst     38h
3e0b ff        rst     38h
3e0c ff        rst     38h
3e0d ff        rst     38h
3e0e ff        rst     38h
3e0f ff        rst     38h
3e10 ff        rst     38h
3e11 ff        rst     38h
3e12 ff        rst     38h
3e13 ff        rst     38h
3e14 ff        rst     38h
3e15 ff        rst     38h
3e16 ff        rst     38h
3e17 ff        rst     38h
3e18 ff        rst     38h
3e19 ff        rst     38h
3e1a ff        rst     38h
3e1b ff        rst     38h
3e1c ff        rst     38h
3e1d ff        rst     38h
3e1e ff        rst     38h
3e1f ff        rst     38h
3e20 ff        rst     38h
3e21 ff        rst     38h
3e22 ff        rst     38h
3e23 ff        rst     38h
3e24 ff        rst     38h
3e25 ff        rst     38h
3e26 ff        rst     38h
3e27 ff        rst     38h
3e28 ff        rst     38h
3e29 ff        rst     38h
3e2a ff        rst     38h
3e2b ff        rst     38h
3e2c ff        rst     38h
3e2d ff        rst     38h
3e2e ff        rst     38h
3e2f ff        rst     38h
3e30 ff        rst     38h
3e31 ff        rst     38h
3e32 ff        rst     38h
3e33 ff        rst     38h
3e34 ff        rst     38h
3e35 ff        rst     38h
3e36 ff        rst     38h
3e37 ff        rst     38h
3e38 ff        rst     38h
3e39 ff        rst     38h
3e3a ff        rst     38h
3e3b ff        rst     38h
3e3c ff        rst     38h
3e3d ff        rst     38h
3e3e ff        rst     38h
3e3f ff        rst     38h
3e40 ff        rst     38h
3e41 ff        rst     38h
3e42 ff        rst     38h
3e43 ff        rst     38h
3e44 ff        rst     38h
3e45 ff        rst     38h
3e46 ff        rst     38h
3e47 ff        rst     38h
3e48 ff        rst     38h
3e49 ff        rst     38h
3e4a ff        rst     38h
3e4b ff        rst     38h
3e4c ff        rst     38h
3e4d ff        rst     38h
3e4e ff        rst     38h
3e4f ff        rst     38h
3e50 ff        rst     38h
3e51 ff        rst     38h
3e52 ff        rst     38h
3e53 ff        rst     38h
3e54 ff        rst     38h
3e55 ff        rst     38h
3e56 ff        rst     38h
3e57 ff        rst     38h
3e58 ff        rst     38h
3e59 ff        rst     38h
3e5a ff        rst     38h
3e5b ff        rst     38h
3e5c ff        rst     38h
3e5d ff        rst     38h
3e5e ff        rst     38h
3e5f ff        rst     38h
3e60 ff        rst     38h
3e61 ff        rst     38h
3e62 ff        rst     38h
3e63 ff        rst     38h
3e64 ff        rst     38h
3e65 ff        rst     38h
3e66 ff        rst     38h
3e67 ff        rst     38h
3e68 ff        rst     38h
3e69 ff        rst     38h
3e6a ff        rst     38h
3e6b ff        rst     38h
3e6c ff        rst     38h
3e6d ff        rst     38h
3e6e ff        rst     38h
3e6f ff        rst     38h
3e70 ff        rst     38h
3e71 ff        rst     38h
3e72 ff        rst     38h
3e73 ff        rst     38h
3e74 ff        rst     38h
3e75 ff        rst     38h
3e76 ff        rst     38h
3e77 ff        rst     38h
3e78 ff        rst     38h
3e79 ff        rst     38h
3e7a ff        rst     38h
3e7b ff        rst     38h
3e7c ff        rst     38h
3e7d ff        rst     38h
3e7e ff        rst     38h
3e7f ff        rst     38h
3e80 ff        rst     38h
3e81 ff        rst     38h
3e82 ff        rst     38h
3e83 ff        rst     38h
3e84 ff        rst     38h
3e85 ff        rst     38h
3e86 ff        rst     38h
3e87 ff        rst     38h
3e88 ff        rst     38h
3e89 ff        rst     38h
3e8a ff        rst     38h
3e8b ff        rst     38h
3e8c ff        rst     38h
3e8d ff        rst     38h
3e8e ff        rst     38h
3e8f ff        rst     38h
3e90 ff        rst     38h
3e91 ff        rst     38h
3e92 ff        rst     38h
3e93 ff        rst     38h
3e94 ff        rst     38h
3e95 ff        rst     38h
3e96 ff        rst     38h
3e97 ff        rst     38h
3e98 ff        rst     38h
3e99 ff        rst     38h
3e9a ff        rst     38h
3e9b ff        rst     38h
3e9c ff        rst     38h
3e9d ff        rst     38h
3e9e ff        rst     38h
3e9f ff        rst     38h
3ea0 ff        rst     38h
3ea1 ff        rst     38h
3ea2 ff        rst     38h
3ea3 ff        rst     38h
3ea4 ff        rst     38h
3ea5 ff        rst     38h
3ea6 ff        rst     38h
3ea7 ff        rst     38h
3ea8 ff        rst     38h
3ea9 ff        rst     38h
3eaa ff        rst     38h
3eab ff        rst     38h
3eac ff        rst     38h
3ead ff        rst     38h
3eae ff        rst     38h
3eaf ff        rst     38h
3eb0 ff        rst     38h
3eb1 ff        rst     38h
3eb2 ff        rst     38h
3eb3 ff        rst     38h
3eb4 ff        rst     38h
3eb5 ff        rst     38h
3eb6 ff        rst     38h
3eb7 ff        rst     38h
3eb8 ff        rst     38h
3eb9 ff        rst     38h
3eba ff        rst     38h
3ebb ff        rst     38h
3ebc ff        rst     38h
3ebd ff        rst     38h
3ebe ff        rst     38h
3ebf ff        rst     38h
3ec0 ff        rst     38h
3ec1 ff        rst     38h
3ec2 ff        rst     38h
3ec3 ff        rst     38h
3ec4 ff        rst     38h
3ec5 ff        rst     38h
3ec6 ff        rst     38h
3ec7 ff        rst     38h
3ec8 ff        rst     38h
3ec9 ff        rst     38h
3eca ff        rst     38h
3ecb ff        rst     38h
3ecc ff        rst     38h
3ecd ff        rst     38h
3ece ff        rst     38h
3ecf ff        rst     38h
3ed0 ff        rst     38h
3ed1 ff        rst     38h
3ed2 ff        rst     38h
3ed3 ff        rst     38h
3ed4 ff        rst     38h
3ed5 ff        rst     38h
3ed6 ff        rst     38h
3ed7 ff        rst     38h
3ed8 ff        rst     38h
3ed9 ff        rst     38h
3eda ff        rst     38h
3edb ff        rst     38h
3edc ff        rst     38h
3edd ff        rst     38h
3ede ff        rst     38h
3edf ff        rst     38h
3ee0 ff        rst     38h
3ee1 ff        rst     38h
3ee2 ff        rst     38h
3ee3 ff        rst     38h
3ee4 ff        rst     38h
3ee5 ff        rst     38h
3ee6 ff        rst     38h
3ee7 ff        rst     38h
3ee8 ff        rst     38h
3ee9 ff        rst     38h
3eea ff        rst     38h
3eeb ff        rst     38h
3eec ff        rst     38h
3eed ff        rst     38h
3eee ff        rst     38h
3eef ff        rst     38h
3ef0 ff        rst     38h
3ef1 ff        rst     38h
3ef2 ff        rst     38h
3ef3 ff        rst     38h
3ef4 ff        rst     38h
3ef5 ff        rst     38h
3ef6 ff        rst     38h
3ef7 ff        rst     38h
3ef8 ff        rst     38h
3ef9 ff        rst     38h
3efa ff        rst     38h
3efb ff        rst     38h
3efc ff        rst     38h
3efd ff        rst     38h
3efe ff        rst     38h
3eff ff        rst     38h
3f00 ff        rst     38h
3f01 ff        rst     38h
3f02 ff        rst     38h
3f03 ff        rst     38h
3f04 ff        rst     38h
3f05 ff        rst     38h
3f06 ff        rst     38h
3f07 ff        rst     38h
3f08 ff        rst     38h
3f09 ff        rst     38h
3f0a ff        rst     38h
3f0b ff        rst     38h
3f0c ff        rst     38h
3f0d ff        rst     38h
3f0e ff        rst     38h
3f0f ff        rst     38h
3f10 ff        rst     38h
3f11 ff        rst     38h
3f12 ff        rst     38h
3f13 ff        rst     38h
3f14 ff        rst     38h
3f15 ff        rst     38h
3f16 ff        rst     38h
3f17 ff        rst     38h
3f18 ff        rst     38h
3f19 ff        rst     38h
3f1a ff        rst     38h
3f1b ff        rst     38h
3f1c ff        rst     38h
3f1d ff        rst     38h
3f1e ff        rst     38h
3f1f ff        rst     38h
3f20 ff        rst     38h
3f21 ff        rst     38h
3f22 ff        rst     38h
3f23 ff        rst     38h
3f24 ff        rst     38h
3f25 ff        rst     38h
3f26 ff        rst     38h
3f27 ff        rst     38h
3f28 ff        rst     38h
3f29 ff        rst     38h
3f2a ff        rst     38h
3f2b ff        rst     38h
3f2c ff        rst     38h
3f2d ff        rst     38h
3f2e ff        rst     38h
3f2f ff        rst     38h
3f30 ff        rst     38h
3f31 ff        rst     38h
3f32 ff        rst     38h
3f33 ff        rst     38h
3f34 ff        rst     38h
3f35 ff        rst     38h
3f36 ff        rst     38h
3f37 ff        rst     38h
3f38 ff        rst     38h
3f39 ff        rst     38h
3f3a ff        rst     38h
3f3b ff        rst     38h
3f3c ff        rst     38h
3f3d ff        rst     38h
3f3e ff        rst     38h
3f3f ff        rst     38h
3f40 ff        rst     38h
3f41 ff        rst     38h
3f42 ff        rst     38h
3f43 ff        rst     38h
3f44 ff        rst     38h
3f45 ff        rst     38h
3f46 ff        rst     38h
3f47 ff        rst     38h
3f48 ff        rst     38h
3f49 ff        rst     38h
3f4a ff        rst     38h
3f4b ff        rst     38h
3f4c ff        rst     38h
3f4d ff        rst     38h
3f4e ff        rst     38h
3f4f ff        rst     38h
3f50 ff        rst     38h
3f51 ff        rst     38h
3f52 ff        rst     38h
3f53 ff        rst     38h
3f54 ff        rst     38h
3f55 ff        rst     38h
3f56 ff        rst     38h
3f57 ff        rst     38h
3f58 ff        rst     38h
3f59 ff        rst     38h
3f5a ff        rst     38h
3f5b ff        rst     38h
3f5c ff        rst     38h
3f5d ff        rst     38h
3f5e ff        rst     38h
3f5f ff        rst     38h
3f60 ff        rst     38h
3f61 ff        rst     38h
3f62 ff        rst     38h
3f63 ff        rst     38h
3f64 ff        rst     38h
3f65 ff        rst     38h
3f66 ff        rst     38h
3f67 ff        rst     38h
3f68 ff        rst     38h
3f69 ff        rst     38h
3f6a ff        rst     38h
3f6b ff        rst     38h
3f6c ff        rst     38h
3f6d ff        rst     38h
3f6e ff        rst     38h
3f6f ff        rst     38h
3f70 ff        rst     38h
3f71 ff        rst     38h
3f72 ff        rst     38h
3f73 ff        rst     38h
3f74 ff        rst     38h
3f75 ff        rst     38h
3f76 ff        rst     38h
3f77 ff        rst     38h
3f78 ff        rst     38h
3f79 ff        rst     38h
3f7a ff        rst     38h
3f7b ff        rst     38h
3f7c ff        rst     38h
3f7d ff        rst     38h
3f7e ff        rst     38h
3f7f ff        rst     38h
3f80 ff        rst     38h
3f81 ff        rst     38h
3f82 ff        rst     38h
3f83 ff        rst     38h
3f84 ff        rst     38h
3f85 ff        rst     38h
3f86 ff        rst     38h
3f87 ff        rst     38h
3f88 ff        rst     38h
3f89 ff        rst     38h
3f8a ff        rst     38h
3f8b ff        rst     38h
3f8c ff        rst     38h
3f8d ff        rst     38h
3f8e ff        rst     38h
3f8f ff        rst     38h
3f90 ff        rst     38h
3f91 ff        rst     38h
3f92 ff        rst     38h
3f93 ff        rst     38h
3f94 ff        rst     38h
3f95 ff        rst     38h
3f96 ff        rst     38h
3f97 ff        rst     38h
3f98 ff        rst     38h
3f99 ff        rst     38h
3f9a ff        rst     38h
3f9b ff        rst     38h
3f9c ff        rst     38h
3f9d ff        rst     38h
3f9e ff        rst     38h
3f9f ff        rst     38h
3fa0 ff        rst     38h
3fa1 ff        rst     38h
3fa2 ff        rst     38h
3fa3 ff        rst     38h
3fa4 ff        rst     38h
3fa5 ff        rst     38h
3fa6 ff        rst     38h
3fa7 ff        rst     38h
3fa8 ff        rst     38h
3fa9 ff        rst     38h
3faa ff        rst     38h
3fab ff        rst     38h
3fac ff        rst     38h
3fad ff        rst     38h
3fae ff        rst     38h
3faf ff        rst     38h
3fb0 ff        rst     38h
3fb1 ff        rst     38h
3fb2 ff        rst     38h
3fb3 ff        rst     38h
3fb4 ff        rst     38h
3fb5 ff        rst     38h
3fb6 ff        rst     38h
3fb7 ff        rst     38h
3fb8 ff        rst     38h
3fb9 ff        rst     38h
3fba ff        rst     38h
3fbb ff        rst     38h
3fbc ff        rst     38h
3fbd ff        rst     38h
3fbe ff        rst     38h
3fbf ff        rst     38h
3fc0 ff        rst     38h
3fc1 ff        rst     38h
3fc2 ff        rst     38h
3fc3 ff        rst     38h
3fc4 ff        rst     38h
3fc5 ff        rst     38h
3fc6 ff        rst     38h
3fc7 ff        rst     38h
3fc8 ff        rst     38h
3fc9 ff        rst     38h
3fca ff        rst     38h
3fcb ff        rst     38h
3fcc ff        rst     38h
3fcd ff        rst     38h
3fce ff        rst     38h
3fcf ff        rst     38h
3fd0 ff        rst     38h
3fd1 ff        rst     38h
3fd2 ff        rst     38h
3fd3 ff        rst     38h
3fd4 ff        rst     38h
3fd5 ff        rst     38h
3fd6 ff        rst     38h
3fd7 ff        rst     38h
3fd8 ff        rst     38h
3fd9 ff        rst     38h
3fda ff        rst     38h
3fdb ff        rst     38h
3fdc ff        rst     38h
3fdd ff        rst     38h
3fde ff        rst     38h
3fdf ff        rst     38h
3fe0 ff        rst     38h
3fe1 ff        rst     38h
3fe2 ff        rst     38h
3fe3 ff        rst     38h
3fe4 ff        rst     38h
3fe5 ff        rst     38h
3fe6 ff        rst     38h
3fe7 ff        rst     38h
3fe8 ff        rst     38h
3fe9 ff        rst     38h
3fea ff        rst     38h
3feb ff        rst     38h
3fec ff        rst     38h
3fed ff        rst     38h
3fee ff        rst     38h
3fef ff        rst     38h
3ff0 ff        rst     38h
3ff1 ff        rst     38h
3ff2 ff        rst     38h
3ff3 ff        rst     38h
3ff4 ff        rst     38h
3ff5 ff        rst     38h
3ff6 ff        rst     38h
3ff7 ff        rst     38h
3ff8 ff        rst     38h
3ff9 ff        rst     38h
3ffa ff        rst     38h
3ffb ff        rst     38h
3ffc ff        rst     38h
3ffd ff        rst     38h
3ffe ff        rst     38h
3fff ff        rst     38h
